
p2.elf:     file format elf32-littlearm

Sections:
Idx Name          Size      VMA       LMA       File off  Algn
  0 .text         000064f0  0c000000  0c000000  00008000  2**2
                  CONTENTS, ALLOC, LOAD, READONLY, CODE
  1 .data         000001a0  0c0064f0  0c0064f0  0000e4f0  2**2
                  CONTENTS, ALLOC, LOAD, DATA
  2 .rodata       00001364  0c006690  0c006690  0000e690  2**2
                  CONTENTS, ALLOC, LOAD, READONLY, DATA
  3 .bss          00000234  0c007a00  0c007a00  0000f9f4  2**5
                  ALLOC
  4 .ARM.attributes 0000002e  00000000  00000000  0000f9f4  2**0
                  CONTENTS, READONLY
  5 .comment      0000002a  00000000  00000000  0000fa22  2**0
                  CONTENTS, READONLY
  6 .debug_info   00001e31  00000000  00000000  0000fa4c  2**0
                  CONTENTS, READONLY, DEBUGGING
  7 .debug_line   000016aa  00000000  00000000  0001187d  2**0
                  CONTENTS, READONLY, DEBUGGING
  8 .debug_abbrev 000009cc  00000000  00000000  00012f27  2**0
                  CONTENTS, READONLY, DEBUGGING
  9 .debug_frame  00000a04  00000000  00000000  000138f4  2**2
                  CONTENTS, READONLY, DEBUGGING
 10 .debug_aranges 00000140  00000000  00000000  000142f8  2**3
                  CONTENTS, READONLY, DEBUGGING
 11 .debug_macinfo 00039f01  00000000  00000000  00014438  2**0
                  CONTENTS, READONLY, DEBUGGING
 12 .debug_loc    00000c60  00000000  00000000  0004e339  2**0
                  CONTENTS, READONLY, DEBUGGING
 13 .debug_pubnames 00000789  00000000  00000000  0004ef99  2**0
                  CONTENTS, READONLY, DEBUGGING
 14 .debug_pubtypes 00000123  00000000  00000000  0004f722  2**0
                  CONTENTS, READONLY, DEBUGGING
 15 .debug_str    000009eb  00000000  00000000  0004f845  2**0
                  CONTENTS, READONLY, DEBUGGING

Disassembly of section .text:

0c000000 <ENTRY>:
    .extern Main			/* The main entry of mon program */
    
    .text

    ENTRY:
    b ResetHandler			/* for debug            */
 c000000:	ea00010a 	b	c000430 <ResetHandler>
    b HandlerUndef      	/* handlerUndef         */
 c000004:	ea000042 	b	c000114 <HandlerUndef>
    b HandlerSWI        	/* SWI interrupt handler*/
 c000008:	ea000047 	b	c00012c <HandlerSWI>
    b HandlerPabort     	/* handlerPAbort        */
 c00000c:	ea000052 	b	c00015c <HandlerPabort>
    b HandlerDabort     	/* handlerDAbort        */
 c000010:	ea00004b 	b	c000144 <HandlerDabort>
    b .                 	/* handlerReserved      */
 c000014:	eafffffe 	b	c000014 <ENTRY+0x14>
    b HandlerIRQ
 c000018:	ea000037 	b	c0000fc <HandlerIRQ>
    b HandlerFIQ
 c00001c:	ea000030 	b	c0000e4 <HandlerFIQ>

0c000020 <VECTOR_BRANCH>:
	#be changed like below, to work-around with H/W bug of S3C44B0X interrupt controller. 
	# b HandlerIRQ  ->  subs pc,lr,#4
	# b HandlerIRQ  ->  subs pc,lr,#4

VECTOR_BRANCH:
    ldr pc,=HandlerEINT0    /*mGA    H/W interrupt vector table  */
 c000020:	e59ff5dc 	ldr	pc, [pc, #1500]	; c000604 <U0+0x14>
    ldr pc,=HandlerEINT1    /*	                                 */	
 c000024:	e59ff5dc 	ldr	pc, [pc, #1500]	; c000608 <U0+0x18>
    ldr pc,=HandlerEINT2    /*                                   */  
 c000028:	e59ff5dc 	ldr	pc, [pc, #1500]	; c00060c <U0+0x1c>
    ldr pc,=HandlerEINT3    /*                                   */  
 c00002c:	e59ff5dc 	ldr	pc, [pc, #1500]	; c000610 <U0+0x20>
    ldr pc,=HandlerEINT4567 /*                                   */  
 c000030:	e59ff5dc 	ldr	pc, [pc, #1500]	; c000614 <U0+0x24>
    ldr pc,=HandlerTICK	    /*mGA                                */   
 c000034:	e59ff5dc 	ldr	pc, [pc, #1500]	; c000618 <U0+0x28>
    b .                                                          
 c000038:	eafffffe 	b	c000038 <VECTOR_BRANCH+0x18>
    b .                                                         
 c00003c:	eafffffe 	b	c00003c <VECTOR_BRANCH+0x1c>
    ldr pc,=HandlerZDMA0    /*mGB                                */  
 c000040:	e59ff5d4 	ldr	pc, [pc, #1492]	; c00061c <U0+0x2c>
    ldr pc,=HandlerZDMA1    /*                                   */  
 c000044:	e59ff5d4 	ldr	pc, [pc, #1492]	; c000620 <U0+0x30>
    ldr pc,=HandlerBDMA0    /*                                   */  
 c000048:	e59ff5d4 	ldr	pc, [pc, #1492]	; c000624 <U0+0x34>
    ldr pc,=HandlerBDMA1    /*                                   */  
 c00004c:	e59ff5d4 	ldr	pc, [pc, #1492]	; c000628 <U0+0x38>
    ldr pc,=HandlerWDT	    /*                                   */   
 c000050:	e59ff5d4 	ldr	pc, [pc, #1492]	; c00062c <U0+0x3c>
    ldr pc,=HandlerUERR01   /*mGB                                */  
 c000054:	e59ff5d4 	ldr	pc, [pc, #1492]	; c000630 <U0+0x40>
    b .                                                          
 c000058:	eafffffe 	b	c000058 <VECTOR_BRANCH+0x38>
    b .                                                          
 c00005c:	eafffffe 	b	c00005c <VECTOR_BRANCH+0x3c>
    ldr pc,=HandlerTIMER0   /*mGC                                */  
 c000060:	e59ff5cc 	ldr	pc, [pc, #1484]	; c000634 <U0+0x44>
    ldr pc,=HandlerTIMER1   /*                                   */  
 c000064:	e59ff5cc 	ldr	pc, [pc, #1484]	; c000638 <U0+0x48>
    ldr pc,=HandlerTIMER2   /*                                   */  
 c000068:	e59ff5cc 	ldr	pc, [pc, #1484]	; c00063c <U0+0x4c>
    ldr pc,=HandlerTIMER3   /*                                   */  
 c00006c:	e59ff5cc 	ldr	pc, [pc, #1484]	; c000640 <U0+0x50>
    ldr pc,=HandlerTIMER4   /*                                   */  
 c000070:	e59ff5cc 	ldr	pc, [pc, #1484]	; c000644 <U0+0x54>
    ldr pc,=HandlerTIMER5   /*mGC                                */  
 c000074:	e59ff5cc 	ldr	pc, [pc, #1484]	; c000648 <U0+0x58>
    b .                                                          
 c000078:	eafffffe 	b	c000078 <VECTOR_BRANCH+0x58>
    b .                                                          
 c00007c:	eafffffe 	b	c00007c <VECTOR_BRANCH+0x5c>
    ldr pc,=HandlerURXD0    /*mGD                                */  
 c000080:	e59ff5c4 	ldr	pc, [pc, #1476]	; c00064c <U0+0x5c>
    ldr pc,=HandlerURXD1    /*                                   */  
 c000084:	e59ff5c4 	ldr	pc, [pc, #1476]	; c000650 <U0+0x60>
    ldr pc,=HandlerIIC	    /*                                   */   
 c000088:	e59ff5c4 	ldr	pc, [pc, #1476]	; c000654 <U0+0x64>
    ldr pc,=HandlerSIO	    /*                                   */   
 c00008c:	e59ff5c4 	ldr	pc, [pc, #1476]	; c000658 <U0+0x68>
    ldr pc,=HandlerUTXD0    /*                                   */  
 c000090:	e59ff5c4 	ldr	pc, [pc, #1476]	; c00065c <U0+0x6c>
    ldr pc,=HandlerUTXD1    /*mGD                                */  
 c000094:	e59ff5c4 	ldr	pc, [pc, #1476]	; c000660 <U0+0x70>
    b .                                                          
 c000098:	eafffffe 	b	c000098 <VECTOR_BRANCH+0x78>
    b .                                                          
 c00009c:	eafffffe 	b	c00009c <VECTOR_BRANCH+0x7c>
    ldr pc,=HandlerRTC	    /*mGKA                               */   
 c0000a0:	e59ff5bc 	ldr	pc, [pc, #1468]	; c000664 <U0+0x74>
    b .					    /*                     		         */
 c0000a4:	eafffffe 	b	c0000a4 <VECTOR_BRANCH+0x84>
    b .					    /*                     		         */
 c0000a8:	eafffffe 	b	c0000a8 <VECTOR_BRANCH+0x88>
    b .					    /*                     		         */
 c0000ac:	eafffffe 	b	c0000ac <VECTOR_BRANCH+0x8c>
    b .					    /*                     		         */
 c0000b0:	eafffffe 	b	c0000b0 <VECTOR_BRANCH+0x90>
    b .					    /*mGKA                 			     */
 c0000b4:	eafffffe 	b	c0000b4 <VECTOR_BRANCH+0x94>
    b .                                                          
 c0000b8:	eafffffe 	b	c0000b8 <VECTOR_BRANCH+0x98>
    b .                                                          
 c0000bc:	eafffffe 	b	c0000bc <VECTOR_BRANCH+0x9c>
    ldr pc,=HandlerADC	    /*mGKB                               */  
 c0000c0:	e59ff5a0 	ldr	pc, [pc, #1440]	; c000668 <U0+0x78>
    b .					    /*                     		         */
 c0000c4:	eafffffe 	b	c0000c4 <VECTOR_BRANCH+0xa4>
    b .					    /*                     		         */
 c0000c8:	eafffffe 	b	c0000c8 <VECTOR_BRANCH+0xa8>
    b .					    /*                     		         */
 c0000cc:	eafffffe 	b	c0000cc <VECTOR_BRANCH+0xac>
    b .					    /*                     		         */
 c0000d0:	eafffffe 	b	c0000d0 <VECTOR_BRANCH+0xb0>
    b .					    /*mGKB                 		         */
 c0000d4:	eafffffe 	b	c0000d4 <VECTOR_BRANCH+0xb4>
    b .                                                          
 c0000d8:	eafffffe 	b	c0000d8 <VECTOR_BRANCH+0xb8>
    b .                                                          
 c0000dc:	eafffffe 	b	c0000dc <VECTOR_BRANCH+0xbc>
@0xe0=EnterPWDN                                                 
    ldr pc,=EnterPWDN
 c0000e0:	e59ff584 	ldr	pc, [pc, #1412]	; c00066c <U0+0x7c>

0c0000e4 <HandlerFIQ>:
               to be dumped into the current section\ 
               (which is assumed to be the .text section)\ 
               at the current location (aligned to a word boundary).*/
   .align

HandlerFIQ:		HANDLER HandleFIQ
 c0000e4:	e24dd004 	sub	sp, sp, #4
 c0000e8:	e52d0004 	push	{r0}		; (str r0, [sp, #-4]!)
 c0000ec:	e59f057c 	ldr	r0, [pc, #1404]	; c000670 <U0+0x80>
 c0000f0:	e5900000 	ldr	r0, [r0]
 c0000f4:	e58d0004 	str	r0, [sp, #4]
 c0000f8:	e8bd8001 	pop	{r0, pc}

0c0000fc <HandlerIRQ>:
HandlerIRQ:		HANDLER HandleIRQ
 c0000fc:	e24dd004 	sub	sp, sp, #4
 c000100:	e52d0004 	push	{r0}		; (str r0, [sp, #-4]!)
 c000104:	e59f0568 	ldr	r0, [pc, #1384]	; c000674 <U0+0x84>
 c000108:	e5900000 	ldr	r0, [r0]
 c00010c:	e58d0004 	str	r0, [sp, #4]
 c000110:	e8bd8001 	pop	{r0, pc}

0c000114 <HandlerUndef>:
HandlerUndef:	HANDLER HandleUndef
 c000114:	e24dd004 	sub	sp, sp, #4
 c000118:	e52d0004 	push	{r0}		; (str r0, [sp, #-4]!)
 c00011c:	e59f0554 	ldr	r0, [pc, #1364]	; c000678 <U0+0x88>
 c000120:	e5900000 	ldr	r0, [r0]
 c000124:	e58d0004 	str	r0, [sp, #4]
 c000128:	e8bd8001 	pop	{r0, pc}

0c00012c <HandlerSWI>:
HandlerSWI:		HANDLER HandleSWI
 c00012c:	e24dd004 	sub	sp, sp, #4
 c000130:	e52d0004 	push	{r0}		; (str r0, [sp, #-4]!)
 c000134:	e59f0540 	ldr	r0, [pc, #1344]	; c00067c <U0+0x8c>
 c000138:	e5900000 	ldr	r0, [r0]
 c00013c:	e58d0004 	str	r0, [sp, #4]
 c000140:	e8bd8001 	pop	{r0, pc}

0c000144 <HandlerDabort>:
HandlerDabort:	HANDLER HandleDabort
 c000144:	e24dd004 	sub	sp, sp, #4
 c000148:	e52d0004 	push	{r0}		; (str r0, [sp, #-4]!)
 c00014c:	e59f052c 	ldr	r0, [pc, #1324]	; c000680 <U0+0x90>
 c000150:	e5900000 	ldr	r0, [r0]
 c000154:	e58d0004 	str	r0, [sp, #4]
 c000158:	e8bd8001 	pop	{r0, pc}

0c00015c <HandlerPabort>:
HandlerPabort:	HANDLER HandlePabort
 c00015c:	e24dd004 	sub	sp, sp, #4
 c000160:	e52d0004 	push	{r0}		; (str r0, [sp, #-4]!)
 c000164:	e59f0518 	ldr	r0, [pc, #1304]	; c000684 <U0+0x94>
 c000168:	e5900000 	ldr	r0, [r0]
 c00016c:	e58d0004 	str	r0, [sp, #4]
 c000170:	e8bd8001 	pop	{r0, pc}

0c000174 <HandlerADC>:
HandlerADC:		HANDLER HandleADC
 c000174:	e24dd004 	sub	sp, sp, #4
 c000178:	e52d0004 	push	{r0}		; (str r0, [sp, #-4]!)
 c00017c:	e59f0504 	ldr	r0, [pc, #1284]	; c000688 <U0+0x98>
 c000180:	e5900000 	ldr	r0, [r0]
 c000184:	e58d0004 	str	r0, [sp, #4]
 c000188:	e8bd8001 	pop	{r0, pc}

0c00018c <HandlerRTC>:
HandlerRTC:		HANDLER HandleRTC
 c00018c:	e24dd004 	sub	sp, sp, #4
 c000190:	e52d0004 	push	{r0}		; (str r0, [sp, #-4]!)
 c000194:	e59f04f0 	ldr	r0, [pc, #1264]	; c00068c <U0+0x9c>
 c000198:	e5900000 	ldr	r0, [r0]
 c00019c:	e58d0004 	str	r0, [sp, #4]
 c0001a0:	e8bd8001 	pop	{r0, pc}

0c0001a4 <HandlerUTXD1>:
HandlerUTXD1:	HANDLER HandleUTXD1
 c0001a4:	e24dd004 	sub	sp, sp, #4
 c0001a8:	e52d0004 	push	{r0}		; (str r0, [sp, #-4]!)
 c0001ac:	e59f04dc 	ldr	r0, [pc, #1244]	; c000690 <U0+0xa0>
 c0001b0:	e5900000 	ldr	r0, [r0]
 c0001b4:	e58d0004 	str	r0, [sp, #4]
 c0001b8:	e8bd8001 	pop	{r0, pc}

0c0001bc <HandlerUTXD0>:
HandlerUTXD0:	HANDLER HandleUTXD0
 c0001bc:	e24dd004 	sub	sp, sp, #4
 c0001c0:	e52d0004 	push	{r0}		; (str r0, [sp, #-4]!)
 c0001c4:	e59f04c8 	ldr	r0, [pc, #1224]	; c000694 <U0+0xa4>
 c0001c8:	e5900000 	ldr	r0, [r0]
 c0001cc:	e58d0004 	str	r0, [sp, #4]
 c0001d0:	e8bd8001 	pop	{r0, pc}

0c0001d4 <HandlerSIO>:
HandlerSIO:		HANDLER HandleSIO
 c0001d4:	e24dd004 	sub	sp, sp, #4
 c0001d8:	e52d0004 	push	{r0}		; (str r0, [sp, #-4]!)
 c0001dc:	e59f04b4 	ldr	r0, [pc, #1204]	; c000698 <U0+0xa8>
 c0001e0:	e5900000 	ldr	r0, [r0]
 c0001e4:	e58d0004 	str	r0, [sp, #4]
 c0001e8:	e8bd8001 	pop	{r0, pc}

0c0001ec <HandlerIIC>:
HandlerIIC:		HANDLER HandleIIC
 c0001ec:	e24dd004 	sub	sp, sp, #4
 c0001f0:	e52d0004 	push	{r0}		; (str r0, [sp, #-4]!)
 c0001f4:	e59f04a0 	ldr	r0, [pc, #1184]	; c00069c <U0+0xac>
 c0001f8:	e5900000 	ldr	r0, [r0]
 c0001fc:	e58d0004 	str	r0, [sp, #4]
 c000200:	e8bd8001 	pop	{r0, pc}

0c000204 <HandlerURXD1>:
HandlerURXD1:	HANDLER HandleURXD1
 c000204:	e24dd004 	sub	sp, sp, #4
 c000208:	e52d0004 	push	{r0}		; (str r0, [sp, #-4]!)
 c00020c:	e59f048c 	ldr	r0, [pc, #1164]	; c0006a0 <U0+0xb0>
 c000210:	e5900000 	ldr	r0, [r0]
 c000214:	e58d0004 	str	r0, [sp, #4]
 c000218:	e8bd8001 	pop	{r0, pc}

0c00021c <HandlerURXD0>:
HandlerURXD0:	HANDLER HandleURXD0
 c00021c:	e24dd004 	sub	sp, sp, #4
 c000220:	e52d0004 	push	{r0}		; (str r0, [sp, #-4]!)
 c000224:	e59f0478 	ldr	r0, [pc, #1144]	; c0006a4 <U0+0xb4>
 c000228:	e5900000 	ldr	r0, [r0]
 c00022c:	e58d0004 	str	r0, [sp, #4]
 c000230:	e8bd8001 	pop	{r0, pc}

0c000234 <HandlerTIMER5>:
HandlerTIMER5:	HANDLER HandleTIMER5
 c000234:	e24dd004 	sub	sp, sp, #4
 c000238:	e52d0004 	push	{r0}		; (str r0, [sp, #-4]!)
 c00023c:	e59f0464 	ldr	r0, [pc, #1124]	; c0006a8 <U0+0xb8>
 c000240:	e5900000 	ldr	r0, [r0]
 c000244:	e58d0004 	str	r0, [sp, #4]
 c000248:	e8bd8001 	pop	{r0, pc}

0c00024c <HandlerTIMER4>:
HandlerTIMER4:	HANDLER HandleTIMER4
 c00024c:	e24dd004 	sub	sp, sp, #4
 c000250:	e52d0004 	push	{r0}		; (str r0, [sp, #-4]!)
 c000254:	e59f0450 	ldr	r0, [pc, #1104]	; c0006ac <U0+0xbc>
 c000258:	e5900000 	ldr	r0, [r0]
 c00025c:	e58d0004 	str	r0, [sp, #4]
 c000260:	e8bd8001 	pop	{r0, pc}

0c000264 <HandlerTIMER3>:
HandlerTIMER3:	HANDLER HandleTIMER3
 c000264:	e24dd004 	sub	sp, sp, #4
 c000268:	e52d0004 	push	{r0}		; (str r0, [sp, #-4]!)
 c00026c:	e59f043c 	ldr	r0, [pc, #1084]	; c0006b0 <U0+0xc0>
 c000270:	e5900000 	ldr	r0, [r0]
 c000274:	e58d0004 	str	r0, [sp, #4]
 c000278:	e8bd8001 	pop	{r0, pc}

0c00027c <HandlerTIMER2>:
HandlerTIMER2:	HANDLER HandleTIMER2
 c00027c:	e24dd004 	sub	sp, sp, #4
 c000280:	e52d0004 	push	{r0}		; (str r0, [sp, #-4]!)
 c000284:	e59f0428 	ldr	r0, [pc, #1064]	; c0006b4 <U0+0xc4>
 c000288:	e5900000 	ldr	r0, [r0]
 c00028c:	e58d0004 	str	r0, [sp, #4]
 c000290:	e8bd8001 	pop	{r0, pc}

0c000294 <HandlerTIMER1>:
HandlerTIMER1:	HANDLER HandleTIMER1
 c000294:	e24dd004 	sub	sp, sp, #4
 c000298:	e52d0004 	push	{r0}		; (str r0, [sp, #-4]!)
 c00029c:	e59f0414 	ldr	r0, [pc, #1044]	; c0006b8 <U0+0xc8>
 c0002a0:	e5900000 	ldr	r0, [r0]
 c0002a4:	e58d0004 	str	r0, [sp, #4]
 c0002a8:	e8bd8001 	pop	{r0, pc}

0c0002ac <HandlerTIMER0>:
HandlerTIMER0:	HANDLER HandleTIMER0
 c0002ac:	e24dd004 	sub	sp, sp, #4
 c0002b0:	e52d0004 	push	{r0}		; (str r0, [sp, #-4]!)
 c0002b4:	e59f0400 	ldr	r0, [pc, #1024]	; c0006bc <U0+0xcc>
 c0002b8:	e5900000 	ldr	r0, [r0]
 c0002bc:	e58d0004 	str	r0, [sp, #4]
 c0002c0:	e8bd8001 	pop	{r0, pc}

0c0002c4 <HandlerUERR01>:
HandlerUERR01:	HANDLER HandleUERR01
 c0002c4:	e24dd004 	sub	sp, sp, #4
 c0002c8:	e52d0004 	push	{r0}		; (str r0, [sp, #-4]!)
 c0002cc:	e59f03ec 	ldr	r0, [pc, #1004]	; c0006c0 <U0+0xd0>
 c0002d0:	e5900000 	ldr	r0, [r0]
 c0002d4:	e58d0004 	str	r0, [sp, #4]
 c0002d8:	e8bd8001 	pop	{r0, pc}

0c0002dc <HandlerWDT>:
HandlerWDT:		HANDLER HandleWDT
 c0002dc:	e24dd004 	sub	sp, sp, #4
 c0002e0:	e52d0004 	push	{r0}		; (str r0, [sp, #-4]!)
 c0002e4:	e59f03d8 	ldr	r0, [pc, #984]	; c0006c4 <U0+0xd4>
 c0002e8:	e5900000 	ldr	r0, [r0]
 c0002ec:	e58d0004 	str	r0, [sp, #4]
 c0002f0:	e8bd8001 	pop	{r0, pc}

0c0002f4 <HandlerBDMA1>:
HandlerBDMA1:	HANDLER HandleBDMA1
 c0002f4:	e24dd004 	sub	sp, sp, #4
 c0002f8:	e52d0004 	push	{r0}		; (str r0, [sp, #-4]!)
 c0002fc:	e59f03c4 	ldr	r0, [pc, #964]	; c0006c8 <U0+0xd8>
 c000300:	e5900000 	ldr	r0, [r0]
 c000304:	e58d0004 	str	r0, [sp, #4]
 c000308:	e8bd8001 	pop	{r0, pc}

0c00030c <HandlerBDMA0>:
HandlerBDMA0:	HANDLER HandleBDMA0
 c00030c:	e24dd004 	sub	sp, sp, #4
 c000310:	e52d0004 	push	{r0}		; (str r0, [sp, #-4]!)
 c000314:	e59f03b0 	ldr	r0, [pc, #944]	; c0006cc <U0+0xdc>
 c000318:	e5900000 	ldr	r0, [r0]
 c00031c:	e58d0004 	str	r0, [sp, #4]
 c000320:	e8bd8001 	pop	{r0, pc}

0c000324 <HandlerZDMA1>:
HandlerZDMA1:	HANDLER HandleZDMA1
 c000324:	e24dd004 	sub	sp, sp, #4
 c000328:	e52d0004 	push	{r0}		; (str r0, [sp, #-4]!)
 c00032c:	e59f039c 	ldr	r0, [pc, #924]	; c0006d0 <U0+0xe0>
 c000330:	e5900000 	ldr	r0, [r0]
 c000334:	e58d0004 	str	r0, [sp, #4]
 c000338:	e8bd8001 	pop	{r0, pc}

0c00033c <HandlerZDMA0>:
HandlerZDMA0:	HANDLER HandleZDMA0
 c00033c:	e24dd004 	sub	sp, sp, #4
 c000340:	e52d0004 	push	{r0}		; (str r0, [sp, #-4]!)
 c000344:	e59f0388 	ldr	r0, [pc, #904]	; c0006d4 <U0+0xe4>
 c000348:	e5900000 	ldr	r0, [r0]
 c00034c:	e58d0004 	str	r0, [sp, #4]
 c000350:	e8bd8001 	pop	{r0, pc}

0c000354 <HandlerTICK>:
HandlerTICK:	HANDLER HandleTICK
 c000354:	e24dd004 	sub	sp, sp, #4
 c000358:	e52d0004 	push	{r0}		; (str r0, [sp, #-4]!)
 c00035c:	e59f0374 	ldr	r0, [pc, #884]	; c0006d8 <U0+0xe8>
 c000360:	e5900000 	ldr	r0, [r0]
 c000364:	e58d0004 	str	r0, [sp, #4]
 c000368:	e8bd8001 	pop	{r0, pc}

0c00036c <HandlerEINT4567>:
HandlerEINT4567:HANDLER HandleEINT4567
 c00036c:	e24dd004 	sub	sp, sp, #4
 c000370:	e52d0004 	push	{r0}		; (str r0, [sp, #-4]!)
 c000374:	e59f0360 	ldr	r0, [pc, #864]	; c0006dc <U0+0xec>
 c000378:	e5900000 	ldr	r0, [r0]
 c00037c:	e58d0004 	str	r0, [sp, #4]
 c000380:	e8bd8001 	pop	{r0, pc}

0c000384 <HandlerEINT3>:
HandlerEINT3:	HANDLER HandleEINT3
 c000384:	e24dd004 	sub	sp, sp, #4
 c000388:	e52d0004 	push	{r0}		; (str r0, [sp, #-4]!)
 c00038c:	e59f034c 	ldr	r0, [pc, #844]	; c0006e0 <U0+0xf0>
 c000390:	e5900000 	ldr	r0, [r0]
 c000394:	e58d0004 	str	r0, [sp, #4]
 c000398:	e8bd8001 	pop	{r0, pc}

0c00039c <HandlerEINT2>:
HandlerEINT2:	HANDLER HandleEINT2
 c00039c:	e24dd004 	sub	sp, sp, #4
 c0003a0:	e52d0004 	push	{r0}		; (str r0, [sp, #-4]!)
 c0003a4:	e59f0338 	ldr	r0, [pc, #824]	; c0006e4 <U0+0xf4>
 c0003a8:	e5900000 	ldr	r0, [r0]
 c0003ac:	e58d0004 	str	r0, [sp, #4]
 c0003b0:	e8bd8001 	pop	{r0, pc}

0c0003b4 <HandlerEINT1>:
HandlerEINT1:	HANDLER HandleEINT1
 c0003b4:	e24dd004 	sub	sp, sp, #4
 c0003b8:	e52d0004 	push	{r0}		; (str r0, [sp, #-4]!)
 c0003bc:	e59f0324 	ldr	r0, [pc, #804]	; c0006e8 <U0+0xf8>
 c0003c0:	e5900000 	ldr	r0, [r0]
 c0003c4:	e58d0004 	str	r0, [sp, #4]
 c0003c8:	e8bd8001 	pop	{r0, pc}

0c0003cc <HandlerEINT0>:
HandlerEINT0:	HANDLER HandleEINT0
 c0003cc:	e24dd004 	sub	sp, sp, #4
 c0003d0:	e52d0004 	push	{r0}		; (str r0, [sp, #-4]!)
 c0003d4:	e59f0310 	ldr	r0, [pc, #784]	; c0006ec <U0+0xfc>
 c0003d8:	e5900000 	ldr	r0, [r0]
 c0003dc:	e58d0004 	str	r0, [sp, #4]
 c0003e0:	e8bd8001 	pop	{r0, pc}

0c0003e4 <IsrIRQ>:

#One of the following two routines can be used for non-vectored interrupt.

IsrIRQ:						/* using I_ISPR register. */
    sub	    sp,sp,#4       	/* reserved for PC	  */
 c0003e4:	e24dd004 	sub	sp, sp, #4
    stmfd   sp!,{r8-r9}   
 c0003e8:	e92d0300 	push	{r8, r9}

#IMPORTANT CAUTION
# when I_ISPC isn't used properly, I_ISPR can be 0 in this routine.

    ldr	    r9,=I_ISPR
 c0003ec:	e59f92fc 	ldr	r9, [pc, #764]	; c0006f0 <U0+0x100>
    ldr	    r9,[r9]
 c0003f0:	e5999000 	ldr	r9, [r9]

	cmp		r9, #0x0		/* If the IDLE mode work-around is used, 	*/
 c0003f4:	e3590000 	cmp	r9, #0
							/* r9 may be 0 sometimes.			*/
	beq		l2
 c0003f8:	0a000009 	beq	c000424 <l2>

    mov	    r8,#0x0
 c0003fc:	e3a08000 	mov	r8, #0

0c000400 <l0>:
l0:
    movs    r9,r9,lsr #1
 c000400:	e1b090a9 	lsrs	r9, r9, #1
    bcs	    l1
 c000404:	2a000001 	bcs	c000410 <l1>
    add	    r8,r8,#4
 c000408:	e2888004 	add	r8, r8, #4
    b	    l0
 c00040c:	eafffffb 	b	c000400 <l0>

0c000410 <l1>:

l1:
    ldr	    r9,=HandleADC
 c000410:	e59f9270 	ldr	r9, [pc, #624]	; c000688 <U0+0x98>
    add	    r9,r9,r8
 c000414:	e0899008 	add	r9, r9, r8
    ldr	    r9,[r9]
 c000418:	e5999000 	ldr	r9, [r9]
    str	    r9,[sp,#8]
 c00041c:	e58d9008 	str	r9, [sp, #8]
    ldmfd   sp!,{r8-r9,pc}
 c000420:	e8bd8300 	pop	{r8, r9, pc}

0c000424 <l2>:

l2:
	ldmfd	sp!,{r8-r9}
 c000424:	e8bd0300 	pop	{r8, r9}
	add		sp,sp,#4
 c000428:	e28dd004 	add	sp, sp, #4
	subs	pc,lr,#4
 c00042c:	e25ef004 	subs	pc, lr, #4

0c000430 <ResetHandler>:

#****************************************************
#*	START											*
#****************************************************
ResetHandler:
    ldr	    r0,=WTCON	    	/* watch dog disable*/
 c000430:	e59f02bc 	ldr	r0, [pc, #700]	; c0006f4 <U0+0x104>
    ldr	    r1,=0x0 		
 c000434:	e3a01000 	mov	r1, #0
    str	    r1,[r0]
 c000438:	e5801000 	str	r1, [r0]

    ldr	    r0,=INTMSK
 c00043c:	e59f02b4 	ldr	r0, [pc, #692]	; c0006f8 <U0+0x108>
    ldr	    r1,=0x07ffffff  	/* all interrupt disable */
 c000440:	e3e0133e 	mvn	r1, #-134217728	; 0xf8000000
    str	    r1,[r0]
 c000444:	e5801000 	str	r1, [r0]

    #****************************************************
    #*	Set clock control registers						*
    #****************************************************
    ldr		r0,=LOCKTIME
 c000448:	e59f02ac 	ldr	r0, [pc, #684]	; c0006fc <U0+0x10c>
    ldr		r1,=0xfff
 c00044c:	e59f12ac 	ldr	r1, [pc, #684]	; c000700 <U0+0x110>
    str		r1,[r0]
 c000450:	e5801000 	str	r1, [r0]

.if PLLONSTART
	ldr		r0,=PLLCON			/* temporary setting of PLL */
 c000454:	e3a00776 	mov	r0, #30932992	; 0x1d80000
	ldr		r1,=((M_DIV<<12)+(P_DIV<<4)+S_DIV)	/* Fin=8MHz,Fout=64MHz     */
 c000458:	e59f12a4 	ldr	r1, [pc, #676]	; c000704 <U0+0x114>
	str		r1,[r0]
 c00045c:	e5801000 	str	r1, [r0]
.endif

    ldr	    r0,=CLKCON		
 c000460:	e59f02a0 	ldr	r0, [pc, #672]	; c000708 <U0+0x118>
    ldr	    r1,=0x7ff8	    	/* All unit block CLK enable */
 c000464:	e59f12a0 	ldr	r1, [pc, #672]	; c00070c <U0+0x11c>
    str	    r1,[r0]
 c000468:	e5801000 	str	r1, [r0]

    #****************************************
    #*  change BDMACON reset value for BDMA *   
    #****************************************
    ldr     r0,=BDIDES0      
 c00046c:	e59f029c 	ldr	r0, [pc, #668]	; c000710 <U0+0x120>
    ldr     r1,=0x40000000   	/* BDIDESn reset value should be 0x40000000 */
 c000470:	e3a01101 	mov	r1, #1073741824	; 0x40000000
    str     r1,[r0]
 c000474:	e5801000 	str	r1, [r0]

    ldr     r0,=BDIDES1      
 c000478:	e59f0294 	ldr	r0, [pc, #660]	; c000714 <U0+0x124>
    ldr     r1,=0x40000000   	/* BDIDESn reset value should be 0x40000000 */	 
 c00047c:	e3a01101 	mov	r1, #1073741824	; 0x40000000
    str     r1,[r0]
 c000480:	e5801000 	str	r1, [r0]

    #****************************************************
    #*	Set memory control registers					* 	
    #****************************************************
    #Este codigo copia el programa a la ROM
    ldr	    r0,=(SMRDATA-0xc000000)
 c000484:	e59f028c 	ldr	r0, [pc, #652]	; c000718 <U0+0x128>
    ldmia   r0,{r1-r13}
 c000488:	e8903ffe 	ldm	r0, {r1, r2, r3, r4, r5, r6, r7, r8, r9, sl, fp, ip, sp}
    ldr	    r0,=0x01c80000  	/* BWSCON Address */
 c00048c:	e3a00772 	mov	r0, #29884416	; 0x1c80000
    stmia   r0,{r1-r13}
 c000490:	e8803ffe 	stm	r0, {r1, r2, r3, r4, r5, r6, r7, r8, r9, sl, fp, ip, sp}

	LDR r0,=0x0
 c000494:	e3a00000 	mov	r0, #0
	LDR r1,=Image_RO_Base
 c000498:	e59f127c 	ldr	r1, [pc, #636]	; c00071c <U0+0x12c>
	LDR r3,=Image_ZI_Limit
 c00049c:	e59f327c 	ldr	r3, [pc, #636]	; c000720 <U0+0x130>

0c0004a0 <LoopRw>:
LoopRw:
    cmp         r1, r3
 c0004a0:	e1510003 	cmp	r1, r3
	ldrcc       r2, [r0], #4
 c0004a4:	34902004 	ldrcc	r2, [r0], #4
	strcc       r2, [r1], #4
 c0004a8:	34812004 	strcc	r2, [r1], #4
	bcc         LoopRw
 c0004ac:	3afffffb 	bcc	c0004a0 <LoopRw>
	mov 	r3,#0
 c0004b0:	e3a03000 	mov	r3, #0
	LDR 	r0, =Image_ZI_Base
 c0004b4:	e59f0268 	ldr	r0, [pc, #616]	; c000724 <U0+0x134>
	LDR 	r1, =Image_ZI_Limit
 c0004b8:	e59f1260 	ldr	r1, [pc, #608]	; c000720 <U0+0x130>

0c0004bc <LoopZI>:
LoopZI:
	cmp 	r0,r1
 c0004bc:	e1500001 	cmp	r0, r1
	strcc 	r3,[r0],#4
 c0004c0:	34803004 	strcc	r3, [r0], #4
	bcc LoopZI
 c0004c4:	3afffffc 	bcc	c0004bc <LoopZI>

    #;****************************************************
    #;*	Initialize stacks								* 
    #;****************************************************
    ldr	    sp, =SVCStack		/* Why	*/		
 c0004c8:	e59fd258 	ldr	sp, [pc, #600]	; c000728 <U0+0x138>
    bl	    InitStacks
 c0004cc:	eb000024 	bl	c000564 <InitStacks>
    #;*	Setup IRQ handler								*
    #;****************************************************
    .extern exception

    // data abort
    ldr		r0,=HandleDabort
 c0004d0:	e59f01a8 	ldr	r0, [pc, #424]	; c000680 <U0+0x90>
    ldr		r1,=exception
 c0004d4:	e59f1250 	ldr	r1, [pc, #592]	; c00072c <U0+0x13c>
    str		r1,[r0]
 c0004d8:	e5801000 	str	r1, [r0]

    // undefined
    ldr		r0,=HandleUndef
 c0004dc:	e59f0194 	ldr	r0, [pc, #404]	; c000678 <U0+0x88>
    ldr		r1,=exception
 c0004e0:	e59f1244 	ldr	r1, [pc, #580]	; c00072c <U0+0x13c>
    str		r1,[r0]
 c0004e4:	e5801000 	str	r1, [r0]

    // prefetch abort
    ldr		r0,=HandlePabort
 c0004e8:	e59f0194 	ldr	r0, [pc, #404]	; c000684 <U0+0x94>
    ldr		r1,=exception
 c0004ec:	e59f1238 	ldr	r1, [pc, #568]	; c00072c <U0+0x13c>
    str		r1,[r0]
 c0004f0:	e5801000 	str	r1, [r0]

    ldr	    r0,=HandleIRQ		/* This routine is needed */
 c0004f4:	e59f0178 	ldr	r0, [pc, #376]	; c000674 <U0+0x84>
    ldr	    r1,=IsrIRQ			/* if there isn't 'subs pc,lr,#4' at 0x18, 0x1c */
 c0004f8:	e59f1230 	ldr	r1, [pc, #560]	; c000730 <U0+0x140>
    str	    r1,[r0]
 c0004fc:	e5801000 	str	r1, [r0]

    #********************************************************
    #*	Copy and paste RW data/zero initialized data	    *
    #********************************************************
    LDR	    r0, =Image_RO_Limit	/* Get pointer to ROM data */
 c000500:	e59f022c 	ldr	r0, [pc, #556]	; c000734 <U0+0x144>
    LDR	    r1, =Image_RW_Base	/* and RAM copy	*/
 c000504:	e59f122c 	ldr	r1, [pc, #556]	; c000738 <U0+0x148>
    LDR	    r3, =Image_ZI_Base	
 c000508:	e59f3214 	ldr	r3, [pc, #532]	; c000724 <U0+0x134>
	/* Zero init base => top of initialised data */
			
    CMP	    r0, r1	    		/* Check that they are different */
 c00050c:	e1500001 	cmp	r0, r1
    BEQ	    F1
 c000510:	0a000003 	beq	c000524 <F1>

0c000514 <F0>:
F0:
    CMP	    r1, r3				/* Copy init data                        */
 c000514:	e1510003 	cmp	r1, r3
    LDRCC   r2, [r0], #4        /* --> LDRCC r2, [r0] + ADD r0, r0, #4	 */
 c000518:	34902004 	ldrcc	r2, [r0], #4
    STRCC   r2, [r1], #4        /* --> STRCC r2, [r1] + ADD r1, r1, #4   */ 
 c00051c:	34812004 	strcc	r2, [r1], #4
    BCC	    F0
 c000520:	3afffffb 	bcc	c000514 <F0>

0c000524 <F1>:
F1:
    LDR	    r1, =Image_ZI_Limit	/* Top of zero init segment */
 c000524:	e59f11f4 	ldr	r1, [pc, #500]	; c000720 <U0+0x130>
    MOV	    r2, #0
 c000528:	e3a02000 	mov	r2, #0

0c00052c <F2>:
F2:
    CMP	    r3, r1	    		/* Zero init */
 c00052c:	e1530001 	cmp	r3, r1
    STRCC   r2, [r3], #4
 c000530:	34832004 	strcc	r2, [r3], #4
    BCC	    F2
 c000534:	3afffffc 	bcc	c00052c <F2>

	MRS	r0, CPSR
 c000538:	e10f0000 	mrs	r0, CPSR
	BIC	r0, r0, #NOINT /* enable interrupt */
 c00053c:	e3c000c0 	bic	r0, r0, #192	; 0xc0
	MSR	CPSR_cxsf, r0
 c000540:	e12ff000 	msr	CPSR_fsxc, r0
	/* jump to main() */
   	BL	Main
 c000544:	eb000eb5 	bl	c004020 <Main>
   	B   .
 c000548:	eafffffe 	b	c000548 <F2+0x1c>

0c00054c <exception>:

exception:

	MRS		r0, CPSR
 c00054c:	e10f0000 	mrs	r0, CPSR
	and r0, r0, #0x1f
 c000550:	e200001f 	and	r0, r0, #31

	sub r1, lr, #4
 c000554:	e24e1004 	sub	r1, lr, #4
	BL push_debug	// apilamos la excepcion
 c000558:	eb0001ad 	bl	c000c14 <push_debug>

	BL error	// mostrar excepcion
 c00055c:	eb000ea8 	bl	c004004 <error>

	B .
 c000560:	eafffffe 	b	c000560 <exception+0x14>

0c000564 <InitStacks>:
InitStacks:
	#Don't use DRAM,such as stmfd,ldmfd......
	#SVCstack is initialized before
	#Under toolkit ver 2.50, 'msr cpsr,r1' can be used instead of 'msr cpsr_cxsf,r1'

    mrs	    r0,cpsr
 c000564:	e10f0000 	mrs	r0, CPSR
    bic	    r0,r0,#MODEMASK
 c000568:	e3c0001f 	bic	r0, r0, #31
    orr	    r1,r0,#UNDEFMODE
 c00056c:	e380101b 	orr	r1, r0, #27
    msr	    cpsr_cxsf,r1		/* UndefMode */
 c000570:	e12ff001 	msr	CPSR_fsxc, r1
    ldr	    sp,=UndefStack
 c000574:	e59fd1c0 	ldr	sp, [pc, #448]	; c00073c <U0+0x14c>
	
    orr	    r1,r0,#ABORTMODE|NOINT
 c000578:	e38010d7 	orr	r1, r0, #215	; 0xd7
    msr	    cpsr_cxsf,r1 	    /* AbortMode */	
 c00057c:	e12ff001 	msr	CPSR_fsxc, r1
    ldr	    sp,=AbortStack
 c000580:	e59fd1b8 	ldr	sp, [pc, #440]	; c000740 <U0+0x150>

    orr	    r1,r0,#IRQMODE|FIQ_MODE
 c000584:	e3801092 	orr	r1, r0, #146	; 0x92
    msr	    cpsr_cxsf,r1 	    /* IRQMode */
 c000588:	e12ff001 	msr	CPSR_fsxc, r1
    ldr	    sp,=IRQStack
 c00058c:	e59fd1b0 	ldr	sp, [pc, #432]	; c000744 <U0+0x154>
	
    orr	    r1,r0,#FIQMODE|IRQ_MODE
 c000590:	e3801051 	orr	r1, r0, #81	; 0x51
    msr	    cpsr_cxsf,r1 	    /* FIQMode */
 c000594:	e12ff001 	msr	CPSR_fsxc, r1
    ldr	    sp,=FIQStack
 c000598:	e59fd1a8 	ldr	sp, [pc, #424]	; c000748 <U0+0x158>

    bic	    r0,r0,#MODEMASK
 c00059c:	e3c0001f 	bic	r0, r0, #31
    orr	    r1,r0,#SVCMODE
 c0005a0:	e3801013 	orr	r1, r0, #19
    msr	    cpsr_cxsf,r1 	    /* SVCMode */
 c0005a4:	e12ff001 	msr	CPSR_fsxc, r1
    ldr	    sp,=SVCStack
 c0005a8:	e59fd178 	ldr	sp, [pc, #376]	; c000728 <U0+0x138>

	#USER mode is not initialized.
    mov	    pc,lr 				/* The LR register may be not valid for the mode changes. */
 c0005ac:	e1a0f00e 	mov	pc, lr

0c0005b0 <EnterPWDN>:
#****************************************************
#*	The function for entering power down mode		*
#****************************************************
#void EnterPWDN(int CLKCON);
EnterPWDN:
    mov	    r2,r0               /* r0=CLKCON */
 c0005b0:	e1a02000 	mov	r2, r0
    ldr	    r0,=REFRESH		
 c0005b4:	e59f0190 	ldr	r0, [pc, #400]	; c00074c <U0+0x15c>
    ldr	    r3,[r0]
 c0005b8:	e5903000 	ldr	r3, [r0]
    mov	    r1, r3
 c0005bc:	e1a01003 	mov	r1, r3
    orr	    r1, r1, #0x400000   /* self-refresh enable */
 c0005c0:	e3811501 	orr	r1, r1, #4194304	; 0x400000
    str	    r1, [r0]
 c0005c4:	e5801000 	str	r1, [r0]

    nop     /* Wait until self-refresh is issued. May not be needed. */
 c0005c8:	e1a00000 	nop			; (mov r0, r0)
    nop     /* If the other bus master holds the bus, ... */
 c0005cc:	e1a00000 	nop			; (mov r0, r0)
    nop	    /* mov r0, r0 */
 c0005d0:	e1a00000 	nop			; (mov r0, r0)
    nop
 c0005d4:	e1a00000 	nop			; (mov r0, r0)
    nop
 c0005d8:	e1a00000 	nop			; (mov r0, r0)
    nop
 c0005dc:	e1a00000 	nop			; (mov r0, r0)
    nop
 c0005e0:	e1a00000 	nop			; (mov r0, r0)

#enter POWERDN mode
    ldr	    r0,=CLKCON
 c0005e4:	e59f011c 	ldr	r0, [pc, #284]	; c000708 <U0+0x118>
    str	    r2,[r0]
 c0005e8:	e5802000 	str	r2, [r0]

#wait until enter SL_IDLE,STOP mode and until wake-up
    ldr	    r0,=0x10
 c0005ec:	e3a00010 	mov	r0, #16

0c0005f0 <U0>:
U0: subs    r0,r0,#1
 c0005f0:	e2500001 	subs	r0, r0, #1
    bne	    U0
 c0005f4:	1afffffd 	bne	c0005f0 <U0>

#exit from DRAM/SDRAM self refresh mode.
    ldr	    r0,=REFRESH
 c0005f8:	e59f014c 	ldr	r0, [pc, #332]	; c00074c <U0+0x15c>
    str	    r3,[r0]
 c0005fc:	e5803000 	str	r3, [r0]
    mov	    pc,lr
 c000600:	e1a0f00e 	mov	pc, lr
 c000604:	0c0003cc 	.word	0x0c0003cc
 c000608:	0c0003b4 	.word	0x0c0003b4
 c00060c:	0c00039c 	.word	0x0c00039c
 c000610:	0c000384 	.word	0x0c000384
 c000614:	0c00036c 	.word	0x0c00036c
 c000618:	0c000354 	.word	0x0c000354
 c00061c:	0c00033c 	.word	0x0c00033c
 c000620:	0c000324 	.word	0x0c000324
 c000624:	0c00030c 	.word	0x0c00030c
 c000628:	0c0002f4 	.word	0x0c0002f4
 c00062c:	0c0002dc 	.word	0x0c0002dc
 c000630:	0c0002c4 	.word	0x0c0002c4
 c000634:	0c0002ac 	.word	0x0c0002ac
 c000638:	0c000294 	.word	0x0c000294
 c00063c:	0c00027c 	.word	0x0c00027c
 c000640:	0c000264 	.word	0x0c000264
 c000644:	0c00024c 	.word	0x0c00024c
 c000648:	0c000234 	.word	0x0c000234
 c00064c:	0c00021c 	.word	0x0c00021c
 c000650:	0c000204 	.word	0x0c000204
 c000654:	0c0001ec 	.word	0x0c0001ec
 c000658:	0c0001d4 	.word	0x0c0001d4
 c00065c:	0c0001bc 	.word	0x0c0001bc
 c000660:	0c0001a4 	.word	0x0c0001a4
 c000664:	0c00018c 	.word	0x0c00018c
 c000668:	0c000174 	.word	0x0c000174
 c00066c:	0c0005b0 	.word	0x0c0005b0
 c000670:	0c7fff1c 	.word	0x0c7fff1c
 c000674:	0c7fff18 	.word	0x0c7fff18
 c000678:	0c7fff04 	.word	0x0c7fff04
 c00067c:	0c7fff08 	.word	0x0c7fff08
 c000680:	0c7fff10 	.word	0x0c7fff10
 c000684:	0c7fff0c 	.word	0x0c7fff0c
 c000688:	0c7fff20 	.word	0x0c7fff20
 c00068c:	0c7fff24 	.word	0x0c7fff24
 c000690:	0c7fff28 	.word	0x0c7fff28
 c000694:	0c7fff2c 	.word	0x0c7fff2c
 c000698:	0c7fff30 	.word	0x0c7fff30
 c00069c:	0c7fff34 	.word	0x0c7fff34
 c0006a0:	0c7fff38 	.word	0x0c7fff38
 c0006a4:	0c7fff3c 	.word	0x0c7fff3c
 c0006a8:	0c7fff40 	.word	0x0c7fff40
 c0006ac:	0c7fff44 	.word	0x0c7fff44
 c0006b0:	0c7fff48 	.word	0x0c7fff48
 c0006b4:	0c7fff4c 	.word	0x0c7fff4c
 c0006b8:	0c7fff50 	.word	0x0c7fff50
 c0006bc:	0c7fff54 	.word	0x0c7fff54
 c0006c0:	0c7fff58 	.word	0x0c7fff58
 c0006c4:	0c7fff5c 	.word	0x0c7fff5c
 c0006c8:	0c7fff60 	.word	0x0c7fff60
 c0006cc:	0c7fff64 	.word	0x0c7fff64
 c0006d0:	0c7fff68 	.word	0x0c7fff68
 c0006d4:	0c7fff6c 	.word	0x0c7fff6c
 c0006d8:	0c7fff70 	.word	0x0c7fff70
 c0006dc:	0c7fff74 	.word	0x0c7fff74
 c0006e0:	0c7fff78 	.word	0x0c7fff78
 c0006e4:	0c7fff7c 	.word	0x0c7fff7c
 c0006e8:	0c7fff80 	.word	0x0c7fff80
 c0006ec:	0c7fff84 	.word	0x0c7fff84
 c0006f0:	01e00020 	.word	0x01e00020
 c0006f4:	01d30000 	.word	0x01d30000
 c0006f8:	01e0000c 	.word	0x01e0000c
 c0006fc:	01d8000c 	.word	0x01d8000c
 c000700:	00000fff 	.word	0x00000fff
 c000704:	00038021 	.word	0x00038021
 c000708:	01d80004 	.word	0x01d80004
 c00070c:	00007ff8 	.word	0x00007ff8
 c000710:	01f80008 	.word	0x01f80008
 c000714:	01f80028 	.word	0x01f80028
 c000718:	00000750 	.word	0x00000750
 c00071c:	0c000000 	.word	0x0c000000
 c000720:	0c007c34 	.word	0x0c007c34
 c000724:	0c0079f4 	.word	0x0c0079f4
 c000728:	0c7ff100 	.word	0x0c7ff100
 c00072c:	0c00054c 	.word	0x0c00054c
 c000730:	0c0003e4 	.word	0x0c0003e4
 c000734:	0c0064f0 	.word	0x0c0064f0
 c000738:	0c0064f0 	.word	0x0c0064f0
 c00073c:	0c7ff200 	.word	0x0c7ff200
 c000740:	0c7ff300 	.word	0x0c7ff300
 c000744:	0c7ff400 	.word	0x0c7ff400
 c000748:	0c7ff500 	.word	0x0c7ff500
 c00074c:	01c80024 	.word	0x01c80024

0c000750 <SMRDATA>:
 c000750:	11110102 	.word	0x11110102
 c000754:	00000600 	.word	0x00000600
 c000758:	00007ffc 	.word	0x00007ffc
 c00075c:	00007ffc 	.word	0x00007ffc
 c000760:	00007ffc 	.word	0x00007ffc
 c000764:	00007ffc 	.word	0x00007ffc
 c000768:	00007ffc 	.word	0x00007ffc
 c00076c:	00018000 	.word	0x00018000
 c000770:	00018000 	.word	0x00018000
 c000774:	00860459 	.word	0x00860459
 c000778:	00000010 	.word	0x00000010
 c00077c:	00000020 	.word	0x00000020
 c000780:	00000020 	.word	0x00000020

0c000784 <Delay>:
void Delay(int time)
// time=0: adjust the Delay function by WatchDog timer
// time>0: the number of loop time
// 100us resolution
// Delay(10) -> 10*100us resolution
{
 c000784:	e1a0c00d 	mov	ip, sp
 c000788:	e92dd800 	push	{fp, ip, lr, pc}
 c00078c:	e24cb004 	sub	fp, ip, #4
 c000790:	e24dd010 	sub	sp, sp, #16
 c000794:	e50b0018 	str	r0, [fp, #-24]	; 0xffffffe8
	int i,adjust = 0;
 c000798:	e3a03000 	mov	r3, #0
 c00079c:	e50b3014 	str	r3, [fp, #-20]	; 0xffffffec
	if (time == 0)
 c0007a0:	e51b3018 	ldr	r3, [fp, #-24]	; 0xffffffe8
 c0007a4:	e3530000 	cmp	r3, #0
 c0007a8:	1a000021 	bne	c000834 <Delay+0xb0>
	{
		time = 200;
 c0007ac:	e3a030c8 	mov	r3, #200	; 0xc8
 c0007b0:	e50b3018 	str	r3, [fp, #-24]	; 0xffffffe8
		adjust = 1;
 c0007b4:	e3a03001 	mov	r3, #1
 c0007b8:	e50b3014 	str	r3, [fp, #-20]	; 0xffffffec
		delayLoopCount = 400;
 c0007bc:	e59f30d8 	ldr	r3, [pc, #216]	; c00089c <Delay+0x118>
 c0007c0:	e3a02e19 	mov	r2, #400	; 0x190
 c0007c4:	e5832000 	str	r2, [r3]
		rWTCON = ((MCLK/1000000 - 1)<<8) | (2<<3);	// 1M/64,Watch-dog,nRESET,interrupt disable//
 c0007c8:	e59f30d0 	ldr	r3, [pc, #208]	; c0008a0 <Delay+0x11c>
 c0007cc:	e59f20d0 	ldr	r2, [pc, #208]	; c0008a4 <Delay+0x120>
 c0007d0:	e5832000 	str	r2, [r3]
		rWTDAT = 0xffff;
 c0007d4:	e59f30cc 	ldr	r3, [pc, #204]	; c0008a8 <Delay+0x124>
 c0007d8:	e59f20cc 	ldr	r2, [pc, #204]	; c0008ac <Delay+0x128>
 c0007dc:	e5832000 	str	r2, [r3]
		rWTCNT = 0xffff;
 c0007e0:	e59f30c8 	ldr	r3, [pc, #200]	; c0008b0 <Delay+0x12c>
 c0007e4:	e59f20c0 	ldr	r2, [pc, #192]	; c0008ac <Delay+0x128>
 c0007e8:	e5832000 	str	r2, [r3]
		rWTCON = ((MCLK/1000000 - 1)<<8)|(2<<3)|(1<<5); // 1M/64,Watch-dog enable,nRESET,interrupt disable //
 c0007ec:	e59f30ac 	ldr	r3, [pc, #172]	; c0008a0 <Delay+0x11c>
 c0007f0:	e59f20bc 	ldr	r2, [pc, #188]	; c0008b4 <Delay+0x130>
 c0007f4:	e5832000 	str	r2, [r3]
	}
	for (; time>0; time--)
 c0007f8:	ea00000d 	b	c000834 <Delay+0xb0>
		for (i = 0; i < delayLoopCount; i++);
 c0007fc:	e3a03000 	mov	r3, #0
 c000800:	e50b3010 	str	r3, [fp, #-16]
 c000804:	ea000002 	b	c000814 <Delay+0x90>
 c000808:	e51b3010 	ldr	r3, [fp, #-16]
 c00080c:	e2833001 	add	r3, r3, #1
 c000810:	e50b3010 	str	r3, [fp, #-16]
 c000814:	e59f3080 	ldr	r3, [pc, #128]	; c00089c <Delay+0x118>
 c000818:	e5933000 	ldr	r3, [r3]
 c00081c:	e51b2010 	ldr	r2, [fp, #-16]
 c000820:	e1520003 	cmp	r2, r3
 c000824:	bafffff7 	blt	c000808 <Delay+0x84>
		rWTCON = ((MCLK/1000000 - 1)<<8) | (2<<3);	// 1M/64,Watch-dog,nRESET,interrupt disable//
		rWTDAT = 0xffff;
		rWTCNT = 0xffff;
		rWTCON = ((MCLK/1000000 - 1)<<8)|(2<<3)|(1<<5); // 1M/64,Watch-dog enable,nRESET,interrupt disable //
	}
	for (; time>0; time--)
 c000828:	e51b3018 	ldr	r3, [fp, #-24]	; 0xffffffe8
 c00082c:	e2433001 	sub	r3, r3, #1
 c000830:	e50b3018 	str	r3, [fp, #-24]	; 0xffffffe8
 c000834:	e51b3018 	ldr	r3, [fp, #-24]	; 0xffffffe8
 c000838:	e3530000 	cmp	r3, #0
 c00083c:	caffffee 	bgt	c0007fc <Delay+0x78>
		for (i = 0; i < delayLoopCount; i++);
	if (adjust == 1)
 c000840:	e51b3014 	ldr	r3, [fp, #-20]	; 0xffffffec
 c000844:	e3530001 	cmp	r3, #1
 c000848:	1a000010 	bne	c000890 <Delay+0x10c>
	{
		rWTCON = ((MCLK/1000000 - 1)<<8)|(2<<3);
 c00084c:	e59f304c 	ldr	r3, [pc, #76]	; c0008a0 <Delay+0x11c>
 c000850:	e59f204c 	ldr	r2, [pc, #76]	; c0008a4 <Delay+0x120>
 c000854:	e5832000 	str	r2, [r3]
		i = 0xffff - rWTCNT;   //  1count/16us?????????//
 c000858:	e59f3050 	ldr	r3, [pc, #80]	; c0008b0 <Delay+0x12c>
 c00085c:	e5933000 	ldr	r3, [r3]
 c000860:	e2633cff 	rsb	r3, r3, #65280	; 0xff00
 c000864:	e28330ff 	add	r3, r3, #255	; 0xff
 c000868:	e50b3010 	str	r3, [fp, #-16]
		delayLoopCount = 8000000/(i*64);	//400*100/(i*64/200)   //
 c00086c:	e51b3010 	ldr	r3, [fp, #-16]
 c000870:	e1a03303 	lsl	r3, r3, #6
 c000874:	e59f003c 	ldr	r0, [pc, #60]	; c0008b8 <Delay+0x134>
 c000878:	e1a01003 	mov	r1, r3
 c00087c:	eb0016b0 	bl	c006344 <__aeabi_idiv>
 c000880:	e1a03000 	mov	r3, r0
 c000884:	e1a02003 	mov	r2, r3
 c000888:	e59f300c 	ldr	r3, [pc, #12]	; c00089c <Delay+0x118>
 c00088c:	e5832000 	str	r2, [r3]
	}
}
 c000890:	e24bd00c 	sub	sp, fp, #12
 c000894:	e89d6800 	ldm	sp, {fp, sp, lr}
 c000898:	e12fff1e 	bx	lr
 c00089c:	0c006504 	.word	0x0c006504
 c0008a0:	01d30000 	.word	0x01d30000
 c0008a4:	00003f10 	.word	0x00003f10
 c0008a8:	01d30004 	.word	0x01d30004
 c0008ac:	0000ffff 	.word	0x0000ffff
 c0008b0:	01d30008 	.word	0x01d30008
 c0008b4:	00003f30 	.word	0x00003f30
 c0008b8:	007a1200 	.word	0x007a1200

0c0008bc <DelayMs>:

void DelayMs(int ms_time)
{
 c0008bc:	e1a0c00d 	mov	ip, sp
 c0008c0:	e92dd800 	push	{fp, ip, lr, pc}
 c0008c4:	e24cb004 	sub	fp, ip, #4
 c0008c8:	e24dd010 	sub	sp, sp, #16
 c0008cc:	e50b0018 	str	r0, [fp, #-24]	; 0xffffffe8
	int i;

	for (i = 0; i < 1000*ms_time ; i++)
 c0008d0:	e3a03000 	mov	r3, #0
 c0008d4:	e50b3010 	str	r3, [fp, #-16]
 c0008d8:	ea000002 	b	c0008e8 <DelayMs+0x2c>
 c0008dc:	e51b3010 	ldr	r3, [fp, #-16]
 c0008e0:	e2833001 	add	r3, r3, #1
 c0008e4:	e50b3010 	str	r3, [fp, #-16]
 c0008e8:	e51b2018 	ldr	r2, [fp, #-24]	; 0xffffffe8
 c0008ec:	e1a03002 	mov	r3, r2
 c0008f0:	e1a03283 	lsl	r3, r3, #5
 c0008f4:	e0623003 	rsb	r3, r2, r3
 c0008f8:	e1a03103 	lsl	r3, r3, #2
 c0008fc:	e0833002 	add	r3, r3, r2
 c000900:	e1a03183 	lsl	r3, r3, #3
 c000904:	e1a02003 	mov	r2, r3
 c000908:	e51b3010 	ldr	r3, [fp, #-16]
 c00090c:	e1520003 	cmp	r2, r3
 c000910:	cafffff1 	bgt	c0008dc <DelayMs+0x20>
		;
}
 c000914:	e24bd00c 	sub	sp, fp, #12
 c000918:	e89d6800 	ldm	sp, {fp, sp, lr}
 c00091c:	e12fff1e 	bx	lr

0c000920 <Port_Init>:

//------------------------PORTS------------------------------//
void Port_Init(void)
{
 c000920:	e1a0c00d 	mov	ip, sp
 c000924:	e92dd800 	push	{fp, ip, lr, pc}
 c000928:	e24cb004 	sub	fp, ip, #4

	// PORT A GROUP
	// BIT 	9	8	7	6	5	4	3	2	1	0
	// 		A24	A23	A22	A21	A20	A19	A18	A17	A16	A0
	//		0	1	1	1	1	1	1	1	1	1
	rPCONA = 0x1ff;
 c00092c:	e59f3100 	ldr	r3, [pc, #256]	; c000a34 <Port_Init+0x114>
 c000930:	e59f2100 	ldr	r2, [pc, #256]	; c000a38 <Port_Init+0x118>
 c000934:	e5832000 	str	r2, [r3]
	// PORT B GROUP
	// BIT 	10		9		8		7		6		5		4		3		2		1		0
	//		/CS5	/CS4	/CS3	/CS2	/CS1	GPB5	GPB4	/SRAS	/SCAS	SCLK	SCKE
	//		EXT		NIC		USB		IDE		SMC		NC		NC		Sdram	Sdram	Sdram	Sdram
	//      1, 		1,   	1,   	1,    	1,    	0,       0,     1,    	1,    	1,   	1
	rPDATB = 0x7ff;
 c000938:	e59f30fc 	ldr	r3, [pc, #252]	; c000a3c <Port_Init+0x11c>
 c00093c:	e59f20fc 	ldr	r2, [pc, #252]	; c000a40 <Port_Init+0x120>
 c000940:	e5832000 	str	r2, [r3]
	rPCONB = 0x1cf;			// P9-LED1 P10-LED2
 c000944:	e59f30f8 	ldr	r3, [pc, #248]	; c000a44 <Port_Init+0x124>
 c000948:	e59f20f8 	ldr	r2, [pc, #248]	; c000a48 <Port_Init+0x128>
 c00094c:	e5832000 	str	r2, [r3]

	//  PC7		6		5		4		3		2		1		0
	//   I		I		I		I		I		I		I		I
	//   NC		NC		NC		NC		IISCLK	IISDI	IISDO	IISLRCK
	//   00		00		00		00		11		11		11		11
	rPDATC = 0xff00;
 c000950:	e59f30f4 	ldr	r3, [pc, #244]	; c000a4c <Port_Init+0x12c>
 c000954:	e3a02cff 	mov	r2, #65280	; 0xff00
 c000958:	e5832000 	str	r2, [r3]
	rPCONC = 0x0ff0ffff;
 c00095c:	e59f30ec 	ldr	r3, [pc, #236]	; c000a50 <Port_Init+0x130>
 c000960:	e59f20ec 	ldr	r2, [pc, #236]	; c000a54 <Port_Init+0x134>
 c000964:	e5832000 	str	r2, [r3]
	rPUPC  = 0x30ff;	//PULL UP RESISTOR should be enabled to I/O
 c000968:	e59f30e8 	ldr	r3, [pc, #232]	; c000a58 <Port_Init+0x138>
 c00096c:	e59f20e8 	ldr	r2, [pc, #232]	; c000a5c <Port_Init+0x13c>
 c000970:	e5832000 	str	r2, [r3]
	// PORT D GROUP
	// PORT D GROUP(I/O OR LCD)
	// BIT7		6		5		4		3		2		1		0
	//	VF		VM		VLINE	VCLK	VD3		VD2		VD1		VD0
	//	00		00		00		00		00		00		00		00
	rPDATD= 0xff;
 c000974:	e59f30e4 	ldr	r3, [pc, #228]	; c000a60 <Port_Init+0x140>
 c000978:	e3a020ff 	mov	r2, #255	; 0xff
 c00097c:	e5832000 	str	r2, [r3]
	rPCOND= 0xaaaa;
 c000980:	e59f30dc 	ldr	r3, [pc, #220]	; c000a64 <Port_Init+0x144>
 c000984:	e59f20dc 	ldr	r2, [pc, #220]	; c000a68 <Port_Init+0x148>
 c000988:	e5832000 	str	r2, [r3]
	rPUPD = 0x0;
 c00098c:	e59f30d8 	ldr	r3, [pc, #216]	; c000a6c <Port_Init+0x14c>
 c000990:	e3a02000 	mov	r2, #0
 c000994:	e5832000 	str	r2, [r3]

	// PORT E GROUP
	// Bit	8		7		6		5		4		3		2		1		0
	//  	CODECLK	LED4	LED5	LED6	LED7	BEEP	RXD0	TXD0	LcdDisp
	//  	10		01		01		01		01		01		10		10		01
	rPDATE	= 0x1ff;
 c000998:	e59f30d0 	ldr	r3, [pc, #208]	; c000a70 <Port_Init+0x150>
 c00099c:	e59f2094 	ldr	r2, [pc, #148]	; c000a38 <Port_Init+0x118>
 c0009a0:	e5832000 	str	r2, [r3]
	rPCONE	= 0x25529;
 c0009a4:	e59f30c8 	ldr	r3, [pc, #200]	; c000a74 <Port_Init+0x154>
 c0009a8:	e59f20c8 	ldr	r2, [pc, #200]	; c000a78 <Port_Init+0x158>
 c0009ac:	e5832000 	str	r2, [r3]
	rPUPE	= 0x6;
 c0009b0:	e59f30c4 	ldr	r3, [pc, #196]	; c000a7c <Port_Init+0x15c>
 c0009b4:	e3a02006 	mov	r2, #6
 c0009b8:	e5832000 	str	r2, [r3]

	// PORT F GROUP
	// Bit8		7		6		5		 4		3		2		1		0
	// IISCLK	IISDI	IISDO	IISLRCK	Input	Input	Input	IICSDA	IICSCL
	// 100		100		100		100		00		00		00		10		10
	rPDATF = 0x0;
 c0009bc:	e59f30bc 	ldr	r3, [pc, #188]	; c000a80 <Port_Init+0x160>
 c0009c0:	e3a02000 	mov	r2, #0
 c0009c4:	e5832000 	str	r2, [r3]
	rPCONF = 0x252a;
 c0009c8:	e59f30b4 	ldr	r3, [pc, #180]	; c000a84 <Port_Init+0x164>
 c0009cc:	e59f20b4 	ldr	r2, [pc, #180]	; c000a88 <Port_Init+0x168>
 c0009d0:	e5832000 	str	r2, [r3]
	rPUPF  = 0x0;
 c0009d4:	e59f30b0 	ldr	r3, [pc, #176]	; c000a8c <Port_Init+0x16c>
 c0009d8:	e3a02000 	mov	r2, #0
 c0009dc:	e5832000 	str	r2, [r3]
	// PORT G GROUP
	// BIT7		6		5		4		3		2		1		0
	// 	INT7	INT6	INT5	INT4	INT3	INT2	INT1	INT0
	//	S3		S4		S5		S6		NIC		EXT		IDE		USB
	//	11      11      11      11      11      11      11      11
	rPDATG = 0xff;
 c0009e0:	e59f30a8 	ldr	r3, [pc, #168]	; c000a90 <Port_Init+0x170>
 c0009e4:	e3a020ff 	mov	r2, #255	; 0xff
 c0009e8:	e5832000 	str	r2, [r3]
	rPCONG = 0xffff;
 c0009ec:	e59f30a0 	ldr	r3, [pc, #160]	; c000a94 <Port_Init+0x174>
 c0009f0:	e59f20a0 	ldr	r2, [pc, #160]	; c000a98 <Port_Init+0x178>
 c0009f4:	e5832000 	str	r2, [r3]
	rPUPG  = 0x0;		//pull-up portG enabled
 c0009f8:	e59f309c 	ldr	r3, [pc, #156]	; c000a9c <Port_Init+0x17c>
 c0009fc:	e3a02000 	mov	r2, #0
 c000a00:	e5832000 	str	r2, [r3]
	rSPUCR = 0x7;  		//D15-D0 pull-up disable
 c000a04:	e59f3094 	ldr	r3, [pc, #148]	; c000aa0 <Port_Init+0x180>
 c000a08:	e3a02007 	mov	r2, #7
 c000a0c:	e5832000 	str	r2, [r3]

	/* Non Cache area */
	rNCACHBE0 = ((Non_Cache_End>>12)<<16) | (Non_Cache_Start>>12);
 c000a10:	e59f308c 	ldr	r3, [pc, #140]	; c000aa4 <Port_Init+0x184>
 c000a14:	e59f208c 	ldr	r2, [pc, #140]	; c000aa8 <Port_Init+0x188>
 c000a18:	e5832000 	str	r2, [r3]

	/* Low level default */
	rEXTINT = 0x0;
 c000a1c:	e59f3088 	ldr	r3, [pc, #136]	; c000aac <Port_Init+0x18c>
 c000a20:	e3a02000 	mov	r2, #0
 c000a24:	e5832000 	str	r2, [r3]
}
 c000a28:	e24bd00c 	sub	sp, fp, #12
 c000a2c:	e89d6800 	ldm	sp, {fp, sp, lr}
 c000a30:	e12fff1e 	bx	lr
 c000a34:	01d20000 	.word	0x01d20000
 c000a38:	000001ff 	.word	0x000001ff
 c000a3c:	01d2000c 	.word	0x01d2000c
 c000a40:	000007ff 	.word	0x000007ff
 c000a44:	01d20008 	.word	0x01d20008
 c000a48:	000001cf 	.word	0x000001cf
 c000a4c:	01d20014 	.word	0x01d20014
 c000a50:	01d20010 	.word	0x01d20010
 c000a54:	0ff0ffff 	.word	0x0ff0ffff
 c000a58:	01d20018 	.word	0x01d20018
 c000a5c:	000030ff 	.word	0x000030ff
 c000a60:	01d20020 	.word	0x01d20020
 c000a64:	01d2001c 	.word	0x01d2001c
 c000a68:	0000aaaa 	.word	0x0000aaaa
 c000a6c:	01d20024 	.word	0x01d20024
 c000a70:	01d2002c 	.word	0x01d2002c
 c000a74:	01d20028 	.word	0x01d20028
 c000a78:	00025529 	.word	0x00025529
 c000a7c:	01d20030 	.word	0x01d20030
 c000a80:	01d20038 	.word	0x01d20038
 c000a84:	01d20034 	.word	0x01d20034
 c000a88:	0000252a 	.word	0x0000252a
 c000a8c:	01d2003c 	.word	0x01d2003c
 c000a90:	01d20044 	.word	0x01d20044
 c000a94:	01d20040 	.word	0x01d20040
 c000a98:	0000ffff 	.word	0x0000ffff
 c000a9c:	01d20048 	.word	0x01d20048
 c000aa0:	01d2004c 	.word	0x01d2004c
 c000aa4:	01c00004 	.word	0x01c00004
 c000aa8:	c0002000 	.word	0xc0002000
 c000aac:	01d20050 	.word	0x01d20050

0c000ab0 <malloc>:

//--------------------------------HEAP---------------------------------//
void *malloc(unsigned nbyte)
/* Very simple; Use malloc() & free() like Stack */
// void *mallocPt=Image$$RW$$Limit;
{
 c000ab0:	e1a0c00d 	mov	ip, sp
 c000ab4:	e92dd800 	push	{fp, ip, lr, pc}
 c000ab8:	e24cb004 	sub	fp, ip, #4
 c000abc:	e24dd010 	sub	sp, sp, #16
 c000ac0:	e50b0018 	str	r0, [fp, #-24]	; 0xffffffe8
	void *returnPt = mallocPt;
 c000ac4:	e59f307c 	ldr	r3, [pc, #124]	; c000b48 <malloc+0x98>
 c000ac8:	e5933000 	ldr	r3, [r3]
 c000acc:	e50b3010 	str	r3, [fp, #-16]

	mallocPt = (int *) mallocPt +nbyte/4 + ((nbyte%4)>0); //to align 4byte
 c000ad0:	e59f3070 	ldr	r3, [pc, #112]	; c000b48 <malloc+0x98>
 c000ad4:	e5932000 	ldr	r2, [r3]
 c000ad8:	e51b3018 	ldr	r3, [fp, #-24]	; 0xffffffe8
 c000adc:	e1a01123 	lsr	r1, r3, #2
 c000ae0:	e51b3018 	ldr	r3, [fp, #-24]	; 0xffffffe8
 c000ae4:	e2033003 	and	r3, r3, #3
 c000ae8:	e3530000 	cmp	r3, #0
 c000aec:	03a03000 	moveq	r3, #0
 c000af0:	13a03001 	movne	r3, #1
 c000af4:	e0813003 	add	r3, r1, r3
 c000af8:	e1a03103 	lsl	r3, r3, #2
 c000afc:	e0822003 	add	r2, r2, r3
 c000b00:	e59f3040 	ldr	r3, [pc, #64]	; c000b48 <malloc+0x98>
 c000b04:	e5832000 	str	r2, [r3]

	if ((int)mallocPt > HEAPEND)
 c000b08:	e59f3038 	ldr	r3, [pc, #56]	; c000b48 <malloc+0x98>
 c000b0c:	e5933000 	ldr	r3, [r3]
 c000b10:	e1a02003 	mov	r2, r3
 c000b14:	e59f3030 	ldr	r3, [pc, #48]	; c000b4c <malloc+0x9c>
 c000b18:	e1520003 	cmp	r2, r3
 c000b1c:	da000004 	ble	c000b34 <malloc+0x84>
	{
		mallocPt = returnPt;
 c000b20:	e59f3020 	ldr	r3, [pc, #32]	; c000b48 <malloc+0x98>
 c000b24:	e51b2010 	ldr	r2, [fp, #-16]
 c000b28:	e5832000 	str	r2, [r3]
		return NULL;
 c000b2c:	e3a03000 	mov	r3, #0
 c000b30:	ea000000 	b	c000b38 <malloc+0x88>
	}
	return returnPt;
 c000b34:	e51b3010 	ldr	r3, [fp, #-16]
}
 c000b38:	e1a00003 	mov	r0, r3
 c000b3c:	e24bd00c 	sub	sp, fp, #12
 c000b40:	e89d6800 	ldm	sp, {fp, sp, lr}
 c000b44:	e12fff1e 	bx	lr
 c000b48:	0c0064fc 	.word	0x0c0064fc
 c000b4c:	0c7ff000 	.word	0x0c7ff000

0c000b50 <free>:

void free(void *pt)
{
 c000b50:	e1a0c00d 	mov	ip, sp
 c000b54:	e92dd800 	push	{fp, ip, lr, pc}
 c000b58:	e24cb004 	sub	fp, ip, #4
 c000b5c:	e24dd008 	sub	sp, sp, #8
 c000b60:	e50b0010 	str	r0, [fp, #-16]
	mallocPt = pt;
 c000b64:	e59f3010 	ldr	r3, [pc, #16]	; c000b7c <free+0x2c>
 c000b68:	e51b2010 	ldr	r2, [fp, #-16]
 c000b6c:	e5832000 	str	r2, [r3]
}
 c000b70:	e24bd00c 	sub	sp, fp, #12
 c000b74:	e89d6800 	ldm	sp, {fp, sp, lr}
 c000b78:	e12fff1e 	bx	lr
 c000b7c:	0c0064fc 	.word	0x0c0064fc

0c000b80 <init_debugstack>:

//--------------------------------DEBUGSTACK---------------------------//
/*
 * Inicializamos los valores de la pila de depuracion a 0
 */
void init_debugstack(){
 c000b80:	e1a0c00d 	mov	ip, sp
 c000b84:	e92dd800 	push	{fp, ip, lr, pc}
 c000b88:	e24cb004 	sub	fp, ip, #4
	while(pointer > (unsigned int *) DEBUGEND) {
 c000b8c:	ea000012 	b	c000bdc <init_debugstack+0x5c>
		// mientras no lleguemos a la final vamos poniendo 0
		pointer = pointer - 3;
 c000b90:	e59f3070 	ldr	r3, [pc, #112]	; c000c08 <init_debugstack+0x88>
 c000b94:	e5933000 	ldr	r3, [r3]
 c000b98:	e243200c 	sub	r2, r3, #12
 c000b9c:	e59f3064 	ldr	r3, [pc, #100]	; c000c08 <init_debugstack+0x88>
 c000ba0:	e5832000 	str	r2, [r3]
		(pointer[0]) = 0;
 c000ba4:	e59f305c 	ldr	r3, [pc, #92]	; c000c08 <init_debugstack+0x88>
 c000ba8:	e5933000 	ldr	r3, [r3]
 c000bac:	e3a02000 	mov	r2, #0
 c000bb0:	e5832000 	str	r2, [r3]
		(pointer[1]) = 0;
 c000bb4:	e59f304c 	ldr	r3, [pc, #76]	; c000c08 <init_debugstack+0x88>
 c000bb8:	e5933000 	ldr	r3, [r3]
 c000bbc:	e2833004 	add	r3, r3, #4
 c000bc0:	e3a02000 	mov	r2, #0
 c000bc4:	e5832000 	str	r2, [r3]
		(pointer[2]) = 0;
 c000bc8:	e59f3038 	ldr	r3, [pc, #56]	; c000c08 <init_debugstack+0x88>
 c000bcc:	e5933000 	ldr	r3, [r3]
 c000bd0:	e2833008 	add	r3, r3, #8
 c000bd4:	e3a02000 	mov	r2, #0
 c000bd8:	e5832000 	str	r2, [r3]
//--------------------------------DEBUGSTACK---------------------------//
/*
 * Inicializamos los valores de la pila de depuracion a 0
 */
void init_debugstack(){
	while(pointer > (unsigned int *) DEBUGEND) {
 c000bdc:	e59f3024 	ldr	r3, [pc, #36]	; c000c08 <init_debugstack+0x88>
 c000be0:	e5932000 	ldr	r2, [r3]
 c000be4:	e59f3020 	ldr	r3, [pc, #32]	; c000c0c <init_debugstack+0x8c>
 c000be8:	e1520003 	cmp	r2, r3
 c000bec:	8affffe7 	bhi	c000b90 <init_debugstack+0x10>
		(pointer[0]) = 0;
		(pointer[1]) = 0;
		(pointer[2]) = 0;
	}
	//ponemos el puntero al incio de la pila
	pointer = (unsigned int *) DEBUGSTACK;
 c000bf0:	e59f3010 	ldr	r3, [pc, #16]	; c000c08 <init_debugstack+0x88>
 c000bf4:	e59f2014 	ldr	r2, [pc, #20]	; c000c10 <init_debugstack+0x90>
 c000bf8:	e5832000 	str	r2, [r3]
}
 c000bfc:	e24bd00c 	sub	sp, fp, #12
 c000c00:	e89d6800 	ldm	sp, {fp, sp, lr}
 c000c04:	e12fff1e 	bx	lr
 c000c08:	0c0064f8 	.word	0x0c0064f8
 c000c0c:	0c7fef00 	.word	0x0c7fef00
 c000c10:	0c7ff000 	.word	0x0c7ff000

0c000c14 <push_debug>:

void push_debug(int ID_evento, int auxData) {
 c000c14:	e1a0c00d 	mov	ip, sp
 c000c18:	e92dd810 	push	{r4, fp, ip, lr, pc}
 c000c1c:	e24cb004 	sub	fp, ip, #4
 c000c20:	e24dd00c 	sub	sp, sp, #12
 c000c24:	e50b0018 	str	r0, [fp, #-24]	; 0xffffffe8
 c000c28:	e50b101c 	str	r1, [fp, #-28]	; 0xffffffe4
	// comprobamos si hemos llegado a la cima
	pointer = pointer - 3;
 c000c2c:	e59f3088 	ldr	r3, [pc, #136]	; c000cbc <push_debug+0xa8>
 c000c30:	e5933000 	ldr	r3, [r3]
 c000c34:	e243200c 	sub	r2, r3, #12
 c000c38:	e59f307c 	ldr	r3, [pc, #124]	; c000cbc <push_debug+0xa8>
 c000c3c:	e5832000 	str	r2, [r3]
	if(pointer < (unsigned int *) DEBUGEND) {
 c000c40:	e59f3074 	ldr	r3, [pc, #116]	; c000cbc <push_debug+0xa8>
 c000c44:	e5932000 	ldr	r2, [r3]
 c000c48:	e59f3070 	ldr	r3, [pc, #112]	; c000cc0 <push_debug+0xac>
 c000c4c:	e1520003 	cmp	r2, r3
 c000c50:	8a000007 	bhi	c000c74 <push_debug+0x60>
		// hemos llegado, volvemos al inicio
		pointer = (unsigned int *) DEBUGSTACK;
 c000c54:	e59f3060 	ldr	r3, [pc, #96]	; c000cbc <push_debug+0xa8>
 c000c58:	e59f2064 	ldr	r2, [pc, #100]	; c000cc4 <push_debug+0xb0>
 c000c5c:	e5832000 	str	r2, [r3]
		pointer = pointer - 3;
 c000c60:	e59f3054 	ldr	r3, [pc, #84]	; c000cbc <push_debug+0xa8>
 c000c64:	e5933000 	ldr	r3, [r3]
 c000c68:	e243200c 	sub	r2, r3, #12
 c000c6c:	e59f3048 	ldr	r3, [pc, #72]	; c000cbc <push_debug+0xa8>
 c000c70:	e5832000 	str	r2, [r3]
	}
	// apilamos los datos
	(pointer[0]) = ID_evento;
 c000c74:	e59f3040 	ldr	r3, [pc, #64]	; c000cbc <push_debug+0xa8>
 c000c78:	e5933000 	ldr	r3, [r3]
 c000c7c:	e51b2018 	ldr	r2, [fp, #-24]	; 0xffffffe8
 c000c80:	e5832000 	str	r2, [r3]
	(pointer[1]) = auxData;
 c000c84:	e59f3030 	ldr	r3, [pc, #48]	; c000cbc <push_debug+0xa8>
 c000c88:	e5933000 	ldr	r3, [r3]
 c000c8c:	e2833004 	add	r3, r3, #4
 c000c90:	e51b201c 	ldr	r2, [fp, #-28]	; 0xffffffe4
 c000c94:	e5832000 	str	r2, [r3]
	(pointer[2]) = timer2_Leer();
 c000c98:	e59f301c 	ldr	r3, [pc, #28]	; c000cbc <push_debug+0xa8>
 c000c9c:	e5933000 	ldr	r3, [r3]
 c000ca0:	e2834008 	add	r4, r3, #8
 c000ca4:	eb001535 	bl	c006180 <timer2_Leer>
 c000ca8:	e1a03000 	mov	r3, r0
 c000cac:	e5843000 	str	r3, [r4]
}
 c000cb0:	e24bd010 	sub	sp, fp, #16
 c000cb4:	e89d6810 	ldm	sp, {r4, fp, sp, lr}
 c000cb8:	e12fff1e 	bx	lr
 c000cbc:	0c0064f8 	.word	0x0c0064f8
 c000cc0:	0c7feeff 	.word	0x0c7feeff
 c000cc4:	0c7ff000 	.word	0x0c7ff000

0c000cc8 <sys_init>:

//--------------------------------INIT---------------------------------//
void sys_init()// Interrupt & Port
{
 c000cc8:	e1a0c00d 	mov	ip, sp
 c000ccc:	e92dd800 	push	{fp, ip, lr, pc}
 c000cd0:	e24cb004 	sub	fp, ip, #4
	/* enable interrupt */
	rINTMOD = 0x0;
 c000cd4:	e59f3040 	ldr	r3, [pc, #64]	; c000d1c <sys_init+0x54>
 c000cd8:	e3a02000 	mov	r2, #0
 c000cdc:	e5832000 	str	r2, [r3]
	rINTCON = 0x1;
 c000ce0:	e3a0361e 	mov	r3, #31457280	; 0x1e00000
 c000ce4:	e3a02001 	mov	r2, #1
 c000ce8:	e5832000 	str	r2, [r3]
	rI_ISPC = 0xffffffff;			/* clear all interrupt pend	*/
 c000cec:	e59f302c 	ldr	r3, [pc, #44]	; c000d20 <sys_init+0x58>
 c000cf0:	e3e02000 	mvn	r2, #0
 c000cf4:	e5832000 	str	r2, [r3]
	rEXTINTPND = 0xf;				// clear EXTINTPND reg
 c000cf8:	e59f3024 	ldr	r3, [pc, #36]	; c000d24 <sys_init+0x5c>
 c000cfc:	e3a0200f 	mov	r2, #15
 c000d00:	e5832000 	str	r2, [r3]
	Port_Init();					/* Initial 44B0X's I/O port */
 c000d04:	ebffff05 	bl	c000920 <Port_Init>
	Delay(0);						/* delay time				*/
 c000d08:	e3a00000 	mov	r0, #0
 c000d0c:	ebfffe9c 	bl	c000784 <Delay>
}
 c000d10:	e24bd00c 	sub	sp, fp, #12
 c000d14:	e89d6800 	ldm	sp, {fp, sp, lr}
 c000d18:	e12fff1e 	bx	lr
 c000d1c:	01e00008 	.word	0x01e00008
 c000d20:	01e00024 	.word	0x01e00024
 c000d24:	01d20054 	.word	0x01d20054

0c000d28 <D8Led_init>:
void D8Led_init(void);
void D8Led_symbol(int value);

/*--- cdigo de las funciones ---*/
void D8Led_init(void)
{
 c000d28:	e1a0c00d 	mov	ip, sp
 c000d2c:	e92dd800 	push	{fp, ip, lr, pc}
 c000d30:	e24cb004 	sub	fp, ip, #4
	/* Estado inicial del display con todos los segmentos iluminados
	   (buscar en los ficheros de cabera la direccion implicada) */
	LED8ADDR = cero;
 c000d34:	e3a03785 	mov	r3, #34865152	; 0x2140000
 c000d38:	e3a02012 	mov	r2, #18
 c000d3c:	e5c32000 	strb	r2, [r3]
}
 c000d40:	e24bd00c 	sub	sp, fp, #12
 c000d44:	e89d6800 	ldm	sp, {fp, sp, lr}
 c000d48:	e12fff1e 	bx	lr

0c000d4c <D8Led_symbol>:

void D8Led_symbol(int value)
{
 c000d4c:	e1a0c00d 	mov	ip, sp
 c000d50:	e92dd800 	push	{fp, ip, lr, pc}
 c000d54:	e24cb004 	sub	fp, ip, #4
 c000d58:	e24dd008 	sub	sp, sp, #8
 c000d5c:	e50b0010 	str	r0, [fp, #-16]
	/* muestra el Symbol[value] en el display (analogo al caso anterior) */
	if ((value >= 0) && (value < size_8led)) {
 c000d60:	e51b3010 	ldr	r3, [fp, #-16]
 c000d64:	e3530000 	cmp	r3, #0
 c000d68:	ba000008 	blt	c000d90 <D8Led_symbol+0x44>
 c000d6c:	e51b3010 	ldr	r3, [fp, #-16]
 c000d70:	e3530010 	cmp	r3, #16
 c000d74:	ca000005 	bgt	c000d90 <D8Led_symbol+0x44>
		LED8ADDR = Symbol[value];
 c000d78:	e3a03785 	mov	r3, #34865152	; 0x2140000
 c000d7c:	e59f2018 	ldr	r2, [pc, #24]	; c000d9c <D8Led_symbol+0x50>
 c000d80:	e51b1010 	ldr	r1, [fp, #-16]
 c000d84:	e7922101 	ldr	r2, [r2, r1, lsl #2]
 c000d88:	e20220ff 	and	r2, r2, #255	; 0xff
 c000d8c:	e5c32000 	strb	r2, [r3]
	}
}
 c000d90:	e24bd00c 	sub	sp, fp, #12
 c000d94:	e89d6800 	ldm	sp, {fp, sp, lr}
 c000d98:	e12fff1e 	bx	lr
 c000d9c:	0c006508 	.word	0x0c006508

0c000da0 <BitmapView>:
* ret:		none
* modify:
* comment:		
*********************************************************************************************/
void BitmapView (INT16U x, INT16U y, STRU_BITMAP Stru_Bitmap)
{
 c000da0:	e1a0c00d 	mov	ip, sp
 c000da4:	e24dd008 	sub	sp, sp, #8
 c000da8:	e92dd800 	push	{fp, ip, lr, pc}
 c000dac:	e24cb00c 	sub	fp, ip, #12
 c000db0:	e24dd018 	sub	sp, sp, #24
 c000db4:	e28bc004 	add	ip, fp, #4
 c000db8:	e88c000c 	stm	ip, {r2, r3}
 c000dbc:	e14b01be 	strh	r0, [fp, #-30]	; 0xffffffe2
 c000dc0:	e14b12b0 	strh	r1, [fp, #-32]	; 0xffffffe0
	INT32U i, j;
	INT8U ucColor;
	
	for (i =  0; i < Stru_Bitmap.usHeight; i++)
 c000dc4:	e3a03000 	mov	r3, #0
 c000dc8:	e50b3010 	str	r3, [fp, #-16]
 c000dcc:	ea00004e 	b	c000f0c <BitmapView+0x16c>
	{
		for (j = 0; j <Stru_Bitmap.usWidth; j++)
 c000dd0:	e3a03000 	mov	r3, #0
 c000dd4:	e50b3014 	str	r3, [fp, #-20]	; 0xffffffec
 c000dd8:	ea000043 	b	c000eec <BitmapView+0x14c>
		{
			if ((ucColor = *(INT8U*)(Stru_Bitmap.pucStart + i * Stru_Bitmap.usWidth + j)) != TRANSPARENCY)
 c000ddc:	e59b2010 	ldr	r2, [fp, #16]
 c000de0:	e1db30b6 	ldrh	r3, [fp, #6]
 c000de4:	e51b1010 	ldr	r1, [fp, #-16]
 c000de8:	e0010193 	mul	r1, r3, r1
 c000dec:	e51b3014 	ldr	r3, [fp, #-20]	; 0xffffffec
 c000df0:	e0813003 	add	r3, r1, r3
 c000df4:	e0823003 	add	r3, r2, r3
 c000df8:	e5d33000 	ldrb	r3, [r3]
 c000dfc:	e54b3015 	strb	r3, [fp, #-21]	; 0xffffffeb
 c000e00:	e55b3015 	ldrb	r3, [fp, #-21]	; 0xffffffeb
 c000e04:	e35300ff 	cmp	r3, #255	; 0xff
 c000e08:	0a000034 	beq	c000ee0 <BitmapView+0x140>
			{
				LCD_PutPixel(x + j, y + i, ucColor); 
 c000e0c:	e15b22b0 	ldrh	r2, [fp, #-32]	; 0xffffffe0
 c000e10:	e51b3010 	ldr	r3, [fp, #-16]
 c000e14:	e0822003 	add	r2, r2, r3
 c000e18:	e1a03002 	mov	r3, r2
 c000e1c:	e1a03103 	lsl	r3, r3, #2
 c000e20:	e0833002 	add	r3, r3, r2
 c000e24:	e1a03303 	lsl	r3, r3, #6
 c000e28:	e1a020a3 	lsr	r2, r3, #1
 c000e2c:	e15b11be 	ldrh	r1, [fp, #-30]	; 0xffffffe2
 c000e30:	e51b3014 	ldr	r3, [fp, #-20]	; 0xffffffec
 c000e34:	e0813003 	add	r3, r1, r3
 c000e38:	e1a031a3 	lsr	r3, r3, #3
 c000e3c:	e1a03103 	lsl	r3, r3, #2
 c000e40:	e0823003 	add	r3, r2, r3
 c000e44:	e28336c3 	add	r3, r3, #204472320	; 0xc300000
 c000e48:	e2833c96 	add	r3, r3, #38400	; 0x9600
 c000e4c:	e1a01003 	mov	r1, r3
 c000e50:	e15b22b0 	ldrh	r2, [fp, #-32]	; 0xffffffe0
 c000e54:	e51b3010 	ldr	r3, [fp, #-16]
 c000e58:	e0822003 	add	r2, r2, r3
 c000e5c:	e1a03002 	mov	r3, r2
 c000e60:	e1a03103 	lsl	r3, r3, #2
 c000e64:	e0833002 	add	r3, r3, r2
 c000e68:	e1a03303 	lsl	r3, r3, #6
 c000e6c:	e1a020a3 	lsr	r2, r3, #1
 c000e70:	e15b01be 	ldrh	r0, [fp, #-30]	; 0xffffffe2
 c000e74:	e51b3014 	ldr	r3, [fp, #-20]	; 0xffffffec
 c000e78:	e0803003 	add	r3, r0, r3
 c000e7c:	e1a031a3 	lsr	r3, r3, #3
 c000e80:	e1a03103 	lsl	r3, r3, #2
 c000e84:	e0823003 	add	r3, r2, r3
 c000e88:	e28336c3 	add	r3, r3, #204472320	; 0xc300000
 c000e8c:	e2833c96 	add	r3, r3, #38400	; 0x9600
 c000e90:	e5932000 	ldr	r2, [r3]
 c000e94:	e15b01be 	ldrh	r0, [fp, #-30]	; 0xffffffe2
 c000e98:	e51b3014 	ldr	r3, [fp, #-20]	; 0xffffffec
 c000e9c:	e0803003 	add	r3, r0, r3
 c000ea0:	e2033007 	and	r3, r3, #7
 c000ea4:	e1a03103 	lsl	r3, r3, #2
 c000ea8:	e3a0020f 	mov	r0, #-268435456	; 0xf0000000
 c000eac:	e1a03330 	lsr	r3, r0, r3
 c000eb0:	e1e03003 	mvn	r3, r3
 c000eb4:	e0022003 	and	r2, r2, r3
 c000eb8:	e55b0015 	ldrb	r0, [fp, #-21]	; 0xffffffeb
 c000ebc:	e15bc1be 	ldrh	ip, [fp, #-30]	; 0xffffffe2
 c000ec0:	e51b3014 	ldr	r3, [fp, #-20]	; 0xffffffec
 c000ec4:	e08c3003 	add	r3, ip, r3
 c000ec8:	e1e03003 	mvn	r3, r3
 c000ecc:	e2033007 	and	r3, r3, #7
 c000ed0:	e1a03103 	lsl	r3, r3, #2
 c000ed4:	e1a03310 	lsl	r3, r0, r3
 c000ed8:	e1823003 	orr	r3, r2, r3
 c000edc:	e5813000 	str	r3, [r1]
	INT32U i, j;
	INT8U ucColor;
	
	for (i =  0; i < Stru_Bitmap.usHeight; i++)
	{
		for (j = 0; j <Stru_Bitmap.usWidth; j++)
 c000ee0:	e51b3014 	ldr	r3, [fp, #-20]	; 0xffffffec
 c000ee4:	e2833001 	add	r3, r3, #1
 c000ee8:	e50b3014 	str	r3, [fp, #-20]	; 0xffffffec
 c000eec:	e1db30b6 	ldrh	r3, [fp, #6]
 c000ef0:	e1a02003 	mov	r2, r3
 c000ef4:	e51b3014 	ldr	r3, [fp, #-20]	; 0xffffffec
 c000ef8:	e1520003 	cmp	r2, r3
 c000efc:	8affffb6 	bhi	c000ddc <BitmapView+0x3c>
void BitmapView (INT16U x, INT16U y, STRU_BITMAP Stru_Bitmap)
{
	INT32U i, j;
	INT8U ucColor;
	
	for (i =  0; i < Stru_Bitmap.usHeight; i++)
 c000f00:	e51b3010 	ldr	r3, [fp, #-16]
 c000f04:	e2833001 	add	r3, r3, #1
 c000f08:	e50b3010 	str	r3, [fp, #-16]
 c000f0c:	e1db30b8 	ldrh	r3, [fp, #8]
 c000f10:	e1a02003 	mov	r2, r3
 c000f14:	e51b3010 	ldr	r3, [fp, #-16]
 c000f18:	e1520003 	cmp	r2, r3
 c000f1c:	8affffab 	bhi	c000dd0 <BitmapView+0x30>
			{
				LCD_PutPixel(x + j, y + i, ucColor); 
			}
		}
	}
}
 c000f20:	e24bd00c 	sub	sp, fp, #12
 c000f24:	e89d6800 	ldm	sp, {fp, sp, lr}
 c000f28:	e12fff1e 	bx	lr

0c000f2c <BitmapPush>:
* ret:		none
* modify:
* comment:		
*********************************************************************************************/
void BitmapPush (INT16U x, INT16U y, STRU_BITMAP Stru_Bitmap)
{
 c000f2c:	e1a0c00d 	mov	ip, sp
 c000f30:	e24dd008 	sub	sp, sp, #8
 c000f34:	e92dd800 	push	{fp, ip, lr, pc}
 c000f38:	e24cb00c 	sub	fp, ip, #12
 c000f3c:	e24dd010 	sub	sp, sp, #16
 c000f40:	e28bc004 	add	ip, fp, #4
 c000f44:	e88c000c 	stm	ip, {r2, r3}
 c000f48:	e14b01b6 	strh	r0, [fp, #-22]	; 0xffffffea
 c000f4c:	e14b11b8 	strh	r1, [fp, #-24]	; 0xffffffe8
	INT32U i, j;

	ulMouseX = x; 
 c000f50:	e59f3234 	ldr	r3, [pc, #564]	; c00118c <BitmapPush+0x260>
 c000f54:	e15b21b6 	ldrh	r2, [fp, #-22]	; 0xffffffea
 c000f58:	e1c320b0 	strh	r2, [r3]
	ulMouseY = y;
 c000f5c:	e59f322c 	ldr	r3, [pc, #556]	; c001190 <BitmapPush+0x264>
 c000f60:	e15b21b8 	ldrh	r2, [fp, #-24]	; 0xffffffe8
 c000f64:	e1c320b0 	strh	r2, [r3]
	for (i =  0; i < Stru_Bitmap.usHeight; i++)
 c000f68:	e3a03000 	mov	r3, #0
 c000f6c:	e50b3010 	str	r3, [fp, #-16]
 c000f70:	ea00007d 	b	c00116c <BitmapPush+0x240>
	{
		for (j = 0; j < Stru_Bitmap.usWidth; j+=2)
 c000f74:	e3a03000 	mov	r3, #0
 c000f78:	e50b3014 	str	r3, [fp, #-20]	; 0xffffffec
 c000f7c:	ea000072 	b	c00114c <BitmapPush+0x220>
		{
			if ((x + j)%2)
 c000f80:	e15b21b6 	ldrh	r2, [fp, #-22]	; 0xffffffea
 c000f84:	e51b3014 	ldr	r3, [fp, #-20]	; 0xffffffec
 c000f88:	e0823003 	add	r3, r2, r3
 c000f8c:	e2033001 	and	r3, r3, #1
 c000f90:	e20330ff 	and	r3, r3, #255	; 0xff
 c000f94:	e3530000 	cmp	r3, #0
 c000f98:	0a000044 	beq	c0010b0 <BitmapPush+0x184>
			{
				ucCursorBackUp[i][j/2] =
 c000f9c:	e51b3014 	ldr	r3, [fp, #-20]	; 0xffffffec
 c000fa0:	e1a0c0a3 	lsr	ip, r3, #1
				(((*(INT8U*)(LCD_ACTIVE_BUFFER + (y + i) * SCR_XSIZE / 2 + (x + j) / 8 * 4  + 3 - ((x + j)%8) / 2)) << 4) & 0xf0) + 
 c000fa4:	e15b21b8 	ldrh	r2, [fp, #-24]	; 0xffffffe8
 c000fa8:	e51b3010 	ldr	r3, [fp, #-16]
 c000fac:	e0822003 	add	r2, r2, r3
 c000fb0:	e1a03002 	mov	r3, r2
 c000fb4:	e1a03103 	lsl	r3, r3, #2
 c000fb8:	e0833002 	add	r3, r3, r2
 c000fbc:	e1a03303 	lsl	r3, r3, #6
 c000fc0:	e1a020a3 	lsr	r2, r3, #1
 c000fc4:	e15b11b6 	ldrh	r1, [fp, #-22]	; 0xffffffea
 c000fc8:	e51b3014 	ldr	r3, [fp, #-20]	; 0xffffffec
 c000fcc:	e0813003 	add	r3, r1, r3
 c000fd0:	e1a031a3 	lsr	r3, r3, #3
 c000fd4:	e1a03103 	lsl	r3, r3, #2
 c000fd8:	e0822003 	add	r2, r2, r3
 c000fdc:	e15b11b6 	ldrh	r1, [fp, #-22]	; 0xffffffea
 c000fe0:	e51b3014 	ldr	r3, [fp, #-20]	; 0xffffffec
 c000fe4:	e0813003 	add	r3, r1, r3
 c000fe8:	e2033007 	and	r3, r3, #7
 c000fec:	e1a030a3 	lsr	r3, r3, #1
 c000ff0:	e2633000 	rsb	r3, r3, #0
 c000ff4:	e0823003 	add	r3, r2, r3
 c000ff8:	e28336c3 	add	r3, r3, #204472320	; 0xc300000
 c000ffc:	e2833003 	add	r3, r3, #3
 c001000:	e5d33000 	ldrb	r3, [r3]
 c001004:	e1a03203 	lsl	r3, r3, #4
	{
		for (j = 0; j < Stru_Bitmap.usWidth; j+=2)
		{
			if ((x + j)%2)
			{
				ucCursorBackUp[i][j/2] =
 c001008:	e20310ff 	and	r1, r3, #255	; 0xff
				(((*(INT8U*)(LCD_ACTIVE_BUFFER + (y + i) * SCR_XSIZE / 2 + (x + j) / 8 * 4  + 3 - ((x + j)%8) / 2)) << 4) & 0xf0) + 
				(((*(INT8U*)(LCD_ACTIVE_BUFFER + (y + i) * SCR_XSIZE / 2 + (x + j+1) / 8 * 4  + 3 - ((x + j+1)%8) / 2)) >> 4) & 0x0f);
 c00100c:	e15b21b8 	ldrh	r2, [fp, #-24]	; 0xffffffe8
 c001010:	e51b3010 	ldr	r3, [fp, #-16]
 c001014:	e0822003 	add	r2, r2, r3
 c001018:	e1a03002 	mov	r3, r2
 c00101c:	e1a03103 	lsl	r3, r3, #2
 c001020:	e0833002 	add	r3, r3, r2
 c001024:	e1a03303 	lsl	r3, r3, #6
 c001028:	e1a020a3 	lsr	r2, r3, #1
 c00102c:	e15b01b6 	ldrh	r0, [fp, #-22]	; 0xffffffea
 c001030:	e51b3014 	ldr	r3, [fp, #-20]	; 0xffffffec
 c001034:	e0803003 	add	r3, r0, r3
 c001038:	e2833001 	add	r3, r3, #1
 c00103c:	e1a031a3 	lsr	r3, r3, #3
 c001040:	e1a03103 	lsl	r3, r3, #2
 c001044:	e0822003 	add	r2, r2, r3
 c001048:	e15b01b6 	ldrh	r0, [fp, #-22]	; 0xffffffea
 c00104c:	e51b3014 	ldr	r3, [fp, #-20]	; 0xffffffec
 c001050:	e0803003 	add	r3, r0, r3
 c001054:	e2833001 	add	r3, r3, #1
 c001058:	e2033007 	and	r3, r3, #7
 c00105c:	e1a030a3 	lsr	r3, r3, #1
 c001060:	e2633000 	rsb	r3, r3, #0
 c001064:	e0823003 	add	r3, r2, r3
 c001068:	e28336c3 	add	r3, r3, #204472320	; 0xc300000
 c00106c:	e2833003 	add	r3, r3, #3
 c001070:	e5d33000 	ldrb	r3, [r3]
	{
		for (j = 0; j < Stru_Bitmap.usWidth; j+=2)
		{
			if ((x + j)%2)
			{
				ucCursorBackUp[i][j/2] =
 c001074:	e1a03223 	lsr	r3, r3, #4
 c001078:	e20330ff 	and	r3, r3, #255	; 0xff
 c00107c:	e0813003 	add	r3, r1, r3
 c001080:	e20310ff 	and	r1, r3, #255	; 0xff
 c001084:	e59f0108 	ldr	r0, [pc, #264]	; c001194 <BitmapPush+0x268>
 c001088:	e51b2010 	ldr	r2, [fp, #-16]
 c00108c:	e1a03002 	mov	r3, r2
 c001090:	e1a03083 	lsl	r3, r3, #1
 c001094:	e0833002 	add	r3, r3, r2
 c001098:	e1a03083 	lsl	r3, r3, #1
 c00109c:	e083300c 	add	r3, r3, ip
 c0010a0:	e0803003 	add	r3, r0, r3
 c0010a4:	e1a02001 	mov	r2, r1
 c0010a8:	e5c32000 	strb	r2, [r3]
 c0010ac:	ea000023 	b	c001140 <BitmapPush+0x214>
				(((*(INT8U*)(LCD_ACTIVE_BUFFER + (y + i) * SCR_XSIZE / 2 + (x + j) / 8 * 4  + 3 - ((x + j)%8) / 2)) << 4) & 0xf0) + 
				(((*(INT8U*)(LCD_ACTIVE_BUFFER + (y + i) * SCR_XSIZE / 2 + (x + j+1) / 8 * 4  + 3 - ((x + j+1)%8) / 2)) >> 4) & 0x0f);
			}
			else
			{
				ucCursorBackUp[i][j/2] = (*(INT8U*)(LCD_ACTIVE_BUFFER + (y + i) * SCR_XSIZE / 2 + (x + j) / 8 * 4  + 3 - ((x + j)%8) / 2));
 c0010b0:	e51b3014 	ldr	r3, [fp, #-20]	; 0xffffffec
 c0010b4:	e1a0c0a3 	lsr	ip, r3, #1
 c0010b8:	e15b21b8 	ldrh	r2, [fp, #-24]	; 0xffffffe8
 c0010bc:	e51b3010 	ldr	r3, [fp, #-16]
 c0010c0:	e0822003 	add	r2, r2, r3
 c0010c4:	e1a03002 	mov	r3, r2
 c0010c8:	e1a03103 	lsl	r3, r3, #2
 c0010cc:	e0833002 	add	r3, r3, r2
 c0010d0:	e1a03303 	lsl	r3, r3, #6
 c0010d4:	e1a020a3 	lsr	r2, r3, #1
 c0010d8:	e15b11b6 	ldrh	r1, [fp, #-22]	; 0xffffffea
 c0010dc:	e51b3014 	ldr	r3, [fp, #-20]	; 0xffffffec
 c0010e0:	e0813003 	add	r3, r1, r3
 c0010e4:	e1a031a3 	lsr	r3, r3, #3
 c0010e8:	e1a03103 	lsl	r3, r3, #2
 c0010ec:	e0822003 	add	r2, r2, r3
 c0010f0:	e15b11b6 	ldrh	r1, [fp, #-22]	; 0xffffffea
 c0010f4:	e51b3014 	ldr	r3, [fp, #-20]	; 0xffffffec
 c0010f8:	e0813003 	add	r3, r1, r3
 c0010fc:	e2033007 	and	r3, r3, #7
 c001100:	e1a030a3 	lsr	r3, r3, #1
 c001104:	e2633000 	rsb	r3, r3, #0
 c001108:	e0823003 	add	r3, r2, r3
 c00110c:	e28336c3 	add	r3, r3, #204472320	; 0xc300000
 c001110:	e2833003 	add	r3, r3, #3
 c001114:	e5d31000 	ldrb	r1, [r3]
 c001118:	e59f0074 	ldr	r0, [pc, #116]	; c001194 <BitmapPush+0x268>
 c00111c:	e51b2010 	ldr	r2, [fp, #-16]
 c001120:	e1a03002 	mov	r3, r2
 c001124:	e1a03083 	lsl	r3, r3, #1
 c001128:	e0833002 	add	r3, r3, r2
 c00112c:	e1a03083 	lsl	r3, r3, #1
 c001130:	e083300c 	add	r3, r3, ip
 c001134:	e0803003 	add	r3, r0, r3
 c001138:	e1a02001 	mov	r2, r1
 c00113c:	e5c32000 	strb	r2, [r3]

	ulMouseX = x; 
	ulMouseY = y;
	for (i =  0; i < Stru_Bitmap.usHeight; i++)
	{
		for (j = 0; j < Stru_Bitmap.usWidth; j+=2)
 c001140:	e51b3014 	ldr	r3, [fp, #-20]	; 0xffffffec
 c001144:	e2833002 	add	r3, r3, #2
 c001148:	e50b3014 	str	r3, [fp, #-20]	; 0xffffffec
 c00114c:	e1db30b6 	ldrh	r3, [fp, #6]
 c001150:	e1a02003 	mov	r2, r3
 c001154:	e51b3014 	ldr	r3, [fp, #-20]	; 0xffffffec
 c001158:	e1520003 	cmp	r2, r3
 c00115c:	8affff87 	bhi	c000f80 <BitmapPush+0x54>
{
	INT32U i, j;

	ulMouseX = x; 
	ulMouseY = y;
	for (i =  0; i < Stru_Bitmap.usHeight; i++)
 c001160:	e51b3010 	ldr	r3, [fp, #-16]
 c001164:	e2833001 	add	r3, r3, #1
 c001168:	e50b3010 	str	r3, [fp, #-16]
 c00116c:	e1db30b8 	ldrh	r3, [fp, #8]
 c001170:	e1a02003 	mov	r2, r3
 c001174:	e51b3010 	ldr	r3, [fp, #-16]
 c001178:	e1520003 	cmp	r2, r3
 c00117c:	8affff7c 	bhi	c000f74 <BitmapPush+0x48>
			{
				ucCursorBackUp[i][j/2] = (*(INT8U*)(LCD_ACTIVE_BUFFER + (y + i) * SCR_XSIZE / 2 + (x + j) / 8 * 4  + 3 - ((x + j)%8) / 2));
			}
		}
	}
}
 c001180:	e24bd00c 	sub	sp, fp, #12
 c001184:	e89d6800 	ldm	sp, {fp, sp, lr}
 c001188:	e12fff1e 	bx	lr
 c00118c:	0c007af6 	.word	0x0c007af6
 c001190:	0c007af4 	.word	0x0c007af4
 c001194:	0c007a7c 	.word	0x0c007a7c

0c001198 <BitmapPop>:
* ret:		none
* modify:
* comment:		
*********************************************************************************************/
void BitmapPop(INT16U x, INT16U y, STRU_BITMAP Stru_Bitmap)
{
 c001198:	e1a0c00d 	mov	ip, sp
 c00119c:	e24dd008 	sub	sp, sp, #8
 c0011a0:	e92dd810 	push	{r4, fp, ip, lr, pc}
 c0011a4:	e24cb00c 	sub	fp, ip, #12
 c0011a8:	e24dd01c 	sub	sp, sp, #28
 c0011ac:	e28bc004 	add	ip, fp, #4
 c0011b0:	e88c000c 	stm	ip, {r2, r3}
 c0011b4:	e14b02b6 	strh	r0, [fp, #-38]	; 0xffffffda
 c0011b8:	e14b12b8 	strh	r1, [fp, #-40]	; 0xffffffd8
	INT32U i, j;
	INT32U ulAddr, ulAddr1;

	for (i =  0; i < Stru_Bitmap.usHeight; i++)
 c0011bc:	e3a03000 	mov	r3, #0
 c0011c0:	e50b3018 	str	r3, [fp, #-24]	; 0xffffffe8
 c0011c4:	ea00008d 	b	c001400 <BitmapPop+0x268>
	{
		for (j = 0; j <Stru_Bitmap.usWidth; j+=2)
 c0011c8:	e3a03000 	mov	r3, #0
 c0011cc:	e50b301c 	str	r3, [fp, #-28]	; 0xffffffe4
 c0011d0:	ea000082 	b	c0013e0 <BitmapPop+0x248>
		{
			ulAddr = LCD_ACTIVE_BUFFER + (y + i) * SCR_XSIZE / 2 + (x + j) / 8 * 4 + 3 - ((x + j)%8) / 2;
 c0011d4:	e15b22b8 	ldrh	r2, [fp, #-40]	; 0xffffffd8
 c0011d8:	e51b3018 	ldr	r3, [fp, #-24]	; 0xffffffe8
 c0011dc:	e0822003 	add	r2, r2, r3
 c0011e0:	e1a03002 	mov	r3, r2
 c0011e4:	e1a03103 	lsl	r3, r3, #2
 c0011e8:	e0833002 	add	r3, r3, r2
 c0011ec:	e1a03303 	lsl	r3, r3, #6
 c0011f0:	e1a020a3 	lsr	r2, r3, #1
 c0011f4:	e15b12b6 	ldrh	r1, [fp, #-38]	; 0xffffffda
 c0011f8:	e51b301c 	ldr	r3, [fp, #-28]	; 0xffffffe4
 c0011fc:	e0813003 	add	r3, r1, r3
 c001200:	e1a031a3 	lsr	r3, r3, #3
 c001204:	e1a03103 	lsl	r3, r3, #2
 c001208:	e0822003 	add	r2, r2, r3
 c00120c:	e15b12b6 	ldrh	r1, [fp, #-38]	; 0xffffffda
 c001210:	e51b301c 	ldr	r3, [fp, #-28]	; 0xffffffe4
 c001214:	e0813003 	add	r3, r1, r3
 c001218:	e2033007 	and	r3, r3, #7
 c00121c:	e1a030a3 	lsr	r3, r3, #1
 c001220:	e2633000 	rsb	r3, r3, #0
 c001224:	e0823003 	add	r3, r2, r3
 c001228:	e28336c3 	add	r3, r3, #204472320	; 0xc300000
 c00122c:	e2833003 	add	r3, r3, #3
 c001230:	e50b3020 	str	r3, [fp, #-32]	; 0xffffffe0
			ulAddr1 =LCD_ACTIVE_BUFFER + (y + i) * SCR_XSIZE / 2 + (x + j + 1) / 8 * 4 + 3 - ((x + j + 1)%8) / 2;
 c001234:	e15b22b8 	ldrh	r2, [fp, #-40]	; 0xffffffd8
 c001238:	e51b3018 	ldr	r3, [fp, #-24]	; 0xffffffe8
 c00123c:	e0822003 	add	r2, r2, r3
 c001240:	e1a03002 	mov	r3, r2
 c001244:	e1a03103 	lsl	r3, r3, #2
 c001248:	e0833002 	add	r3, r3, r2
 c00124c:	e1a03303 	lsl	r3, r3, #6
 c001250:	e1a020a3 	lsr	r2, r3, #1
 c001254:	e15b12b6 	ldrh	r1, [fp, #-38]	; 0xffffffda
 c001258:	e51b301c 	ldr	r3, [fp, #-28]	; 0xffffffe4
 c00125c:	e0813003 	add	r3, r1, r3
 c001260:	e2833001 	add	r3, r3, #1
 c001264:	e1a031a3 	lsr	r3, r3, #3
 c001268:	e1a03103 	lsl	r3, r3, #2
 c00126c:	e0822003 	add	r2, r2, r3
 c001270:	e15b12b6 	ldrh	r1, [fp, #-38]	; 0xffffffda
 c001274:	e51b301c 	ldr	r3, [fp, #-28]	; 0xffffffe4
 c001278:	e0813003 	add	r3, r1, r3
 c00127c:	e2833001 	add	r3, r3, #1
 c001280:	e2033007 	and	r3, r3, #7
 c001284:	e1a030a3 	lsr	r3, r3, #1
 c001288:	e2633000 	rsb	r3, r3, #0
 c00128c:	e0823003 	add	r3, r2, r3
 c001290:	e28336c3 	add	r3, r3, #204472320	; 0xc300000
 c001294:	e2833003 	add	r3, r3, #3
 c001298:	e50b3024 	str	r3, [fp, #-36]	; 0xffffffdc
			if ((x + j)%2)
 c00129c:	e15b22b6 	ldrh	r2, [fp, #-38]	; 0xffffffda
 c0012a0:	e51b301c 	ldr	r3, [fp, #-28]	; 0xffffffe4
 c0012a4:	e0823003 	add	r3, r2, r3
 c0012a8:	e2033001 	and	r3, r3, #1
 c0012ac:	e20330ff 	and	r3, r3, #255	; 0xff
 c0012b0:	e3530000 	cmp	r3, #0
 c0012b4:	0a000039 	beq	c0013a0 <BitmapPop+0x208>
			{
				
				(*(INT8U*)ulAddr) &= 0xf0;
 c0012b8:	e51b3020 	ldr	r3, [fp, #-32]	; 0xffffffe0
 c0012bc:	e51b2020 	ldr	r2, [fp, #-32]	; 0xffffffe0
 c0012c0:	e5d22000 	ldrb	r2, [r2]
 c0012c4:	e3c2200f 	bic	r2, r2, #15
 c0012c8:	e20220ff 	and	r2, r2, #255	; 0xff
 c0012cc:	e5c32000 	strb	r2, [r3]
				(*(INT8U*)ulAddr) |= ((ucCursorBackUp[i][j/2] >> 4) & 0x0f);
 c0012d0:	e51b1020 	ldr	r1, [fp, #-32]	; 0xffffffe0
 c0012d4:	e51b3020 	ldr	r3, [fp, #-32]	; 0xffffffe0
 c0012d8:	e5d33000 	ldrb	r3, [r3]
 c0012dc:	e20300ff 	and	r0, r3, #255	; 0xff
 c0012e0:	e51b301c 	ldr	r3, [fp, #-28]	; 0xffffffe4
 c0012e4:	e1a040a3 	lsr	r4, r3, #1
 c0012e8:	e59fc130 	ldr	ip, [pc, #304]	; c001420 <BitmapPop+0x288>
 c0012ec:	e51b2018 	ldr	r2, [fp, #-24]	; 0xffffffe8
 c0012f0:	e1a03002 	mov	r3, r2
 c0012f4:	e1a03083 	lsl	r3, r3, #1
 c0012f8:	e0833002 	add	r3, r3, r2
 c0012fc:	e1a03083 	lsl	r3, r3, #1
 c001300:	e0833004 	add	r3, r3, r4
 c001304:	e08c3003 	add	r3, ip, r3
 c001308:	e5d33000 	ldrb	r3, [r3]
 c00130c:	e1a03223 	lsr	r3, r3, #4
 c001310:	e20330ff 	and	r3, r3, #255	; 0xff
 c001314:	e20330ff 	and	r3, r3, #255	; 0xff
 c001318:	e1a02000 	mov	r2, r0
 c00131c:	e1823003 	orr	r3, r2, r3
 c001320:	e20330ff 	and	r3, r3, #255	; 0xff
 c001324:	e20330ff 	and	r3, r3, #255	; 0xff
 c001328:	e5c13000 	strb	r3, [r1]
				(*(INT8U*)ulAddr1) &= 0x0f;
 c00132c:	e51b3024 	ldr	r3, [fp, #-36]	; 0xffffffdc
 c001330:	e51b2024 	ldr	r2, [fp, #-36]	; 0xffffffdc
 c001334:	e5d22000 	ldrb	r2, [r2]
 c001338:	e202200f 	and	r2, r2, #15
 c00133c:	e20220ff 	and	r2, r2, #255	; 0xff
 c001340:	e5c32000 	strb	r2, [r3]
				(*(INT8U*)ulAddr1) |= ((ucCursorBackUp[i][j/2] << 4) & 0xf0);
 c001344:	e51b1024 	ldr	r1, [fp, #-36]	; 0xffffffdc
 c001348:	e51b3024 	ldr	r3, [fp, #-36]	; 0xffffffdc
 c00134c:	e5d33000 	ldrb	r3, [r3]
 c001350:	e20300ff 	and	r0, r3, #255	; 0xff
 c001354:	e51b301c 	ldr	r3, [fp, #-28]	; 0xffffffe4
 c001358:	e1a040a3 	lsr	r4, r3, #1
 c00135c:	e59fc0bc 	ldr	ip, [pc, #188]	; c001420 <BitmapPop+0x288>
 c001360:	e51b2018 	ldr	r2, [fp, #-24]	; 0xffffffe8
 c001364:	e1a03002 	mov	r3, r2
 c001368:	e1a03083 	lsl	r3, r3, #1
 c00136c:	e0833002 	add	r3, r3, r2
 c001370:	e1a03083 	lsl	r3, r3, #1
 c001374:	e0833004 	add	r3, r3, r4
 c001378:	e08c3003 	add	r3, ip, r3
 c00137c:	e5d33000 	ldrb	r3, [r3]
 c001380:	e1a03203 	lsl	r3, r3, #4
 c001384:	e20330ff 	and	r3, r3, #255	; 0xff
 c001388:	e1a02000 	mov	r2, r0
 c00138c:	e1823003 	orr	r3, r2, r3
 c001390:	e20330ff 	and	r3, r3, #255	; 0xff
 c001394:	e20330ff 	and	r3, r3, #255	; 0xff
 c001398:	e5c13000 	strb	r3, [r1]
 c00139c:	ea00000c 	b	c0013d4 <BitmapPop+0x23c>
			}
			else
			{
				(*(INT8U*)ulAddr) = ucCursorBackUp[i][j/2];
 c0013a0:	e51b1020 	ldr	r1, [fp, #-32]	; 0xffffffe0
 c0013a4:	e51b301c 	ldr	r3, [fp, #-28]	; 0xffffffe4
 c0013a8:	e1a0c0a3 	lsr	ip, r3, #1
 c0013ac:	e59f006c 	ldr	r0, [pc, #108]	; c001420 <BitmapPop+0x288>
 c0013b0:	e51b2018 	ldr	r2, [fp, #-24]	; 0xffffffe8
 c0013b4:	e1a03002 	mov	r3, r2
 c0013b8:	e1a03083 	lsl	r3, r3, #1
 c0013bc:	e0833002 	add	r3, r3, r2
 c0013c0:	e1a03083 	lsl	r3, r3, #1
 c0013c4:	e083300c 	add	r3, r3, ip
 c0013c8:	e0803003 	add	r3, r0, r3
 c0013cc:	e5d33000 	ldrb	r3, [r3]
 c0013d0:	e5c13000 	strb	r3, [r1]
	INT32U i, j;
	INT32U ulAddr, ulAddr1;

	for (i =  0; i < Stru_Bitmap.usHeight; i++)
	{
		for (j = 0; j <Stru_Bitmap.usWidth; j+=2)
 c0013d4:	e51b301c 	ldr	r3, [fp, #-28]	; 0xffffffe4
 c0013d8:	e2833002 	add	r3, r3, #2
 c0013dc:	e50b301c 	str	r3, [fp, #-28]	; 0xffffffe4
 c0013e0:	e1db30b6 	ldrh	r3, [fp, #6]
 c0013e4:	e1a02003 	mov	r2, r3
 c0013e8:	e51b301c 	ldr	r3, [fp, #-28]	; 0xffffffe4
 c0013ec:	e1520003 	cmp	r2, r3
 c0013f0:	8affff77 	bhi	c0011d4 <BitmapPop+0x3c>
void BitmapPop(INT16U x, INT16U y, STRU_BITMAP Stru_Bitmap)
{
	INT32U i, j;
	INT32U ulAddr, ulAddr1;

	for (i =  0; i < Stru_Bitmap.usHeight; i++)
 c0013f4:	e51b3018 	ldr	r3, [fp, #-24]	; 0xffffffe8
 c0013f8:	e2833001 	add	r3, r3, #1
 c0013fc:	e50b3018 	str	r3, [fp, #-24]	; 0xffffffe8
 c001400:	e1db30b8 	ldrh	r3, [fp, #8]
 c001404:	e1a02003 	mov	r2, r3
 c001408:	e51b3018 	ldr	r3, [fp, #-24]	; 0xffffffe8
 c00140c:	e1520003 	cmp	r2, r3
 c001410:	8affff6c 	bhi	c0011c8 <BitmapPop+0x30>
				(*(INT8U*)ulAddr) = ucCursorBackUp[i][j/2];
			}
			
		}
	}
}
 c001414:	e24bd010 	sub	sp, fp, #16
 c001418:	e89d6810 	ldm	sp, {r4, fp, sp, lr}
 c00141c:	e12fff1e 	bx	lr
 c001420:	0c007a7c 	.word	0x0c007a7c

0c001424 <CursorInit>:
* ret:		none
* modify:
* comment:		
*********************************************************************************************/
void CursorInit(void)
{
 c001424:	e1a0c00d 	mov	ip, sp
 c001428:	e92dd800 	push	{fp, ip, lr, pc}
 c00142c:	e24cb004 	sub	fp, ip, #4
	ulMouseX = 0;
 c001430:	e59f3038 	ldr	r3, [pc, #56]	; c001470 <CursorInit+0x4c>
 c001434:	e3a02000 	mov	r2, #0
 c001438:	e1c320b0 	strh	r2, [r3]
	ulMouseY = 0;
 c00143c:	e59f3030 	ldr	r3, [pc, #48]	; c001474 <CursorInit+0x50>
 c001440:	e3a02000 	mov	r2, #0
 c001444:	e1c320b0 	strh	r2, [r3]
	CursorView(ulMouseX, ulMouseY);
 c001448:	e59f3020 	ldr	r3, [pc, #32]	; c001470 <CursorInit+0x4c>
 c00144c:	e1d320b0 	ldrh	r2, [r3]
 c001450:	e59f301c 	ldr	r3, [pc, #28]	; c001474 <CursorInit+0x50>
 c001454:	e1d330b0 	ldrh	r3, [r3]
 c001458:	e1a00002 	mov	r0, r2
 c00145c:	e1a01003 	mov	r1, r3
 c001460:	eb000032 	bl	c001530 <CursorView>
}
 c001464:	e24bd00c 	sub	sp, fp, #12
 c001468:	e89d6800 	ldm	sp, {fp, sp, lr}
 c00146c:	e12fff1e 	bx	lr
 c001470:	0c007af6 	.word	0x0c007af6
 c001474:	0c007af4 	.word	0x0c007af4

0c001478 <CursorPush>:
* ret:		none
* modify:
* comment:		
*********************************************************************************************/
void CursorPush(INT16U x, INT16U y)
{
 c001478:	e1a0c00d 	mov	ip, sp
 c00147c:	e92dd800 	push	{fp, ip, lr, pc}
 c001480:	e24cb004 	sub	fp, ip, #4
 c001484:	e24dd010 	sub	sp, sp, #16
 c001488:	e1a02000 	mov	r2, r0
 c00148c:	e1a03001 	mov	r3, r1
 c001490:	e14b20be 	strh	r2, [fp, #-14]
 c001494:	e14b31b0 	strh	r3, [fp, #-16]
	BitmapPush(x, y, Stru_Bitmap_gbMouse);
 c001498:	e15be0be 	ldrh	lr, [fp, #-14]
 c00149c:	e15bc1b0 	ldrh	ip, [fp, #-16]
 c0014a0:	e59f3028 	ldr	r3, [pc, #40]	; c0014d0 <CursorPush+0x58>
 c0014a4:	e1a0200d 	mov	r2, sp
 c0014a8:	e2831008 	add	r1, r3, #8
 c0014ac:	e8910003 	ldm	r1, {r0, r1}
 c0014b0:	e8820003 	stm	r2, {r0, r1}
 c0014b4:	e893000c 	ldm	r3, {r2, r3}
 c0014b8:	e1a0000e 	mov	r0, lr
 c0014bc:	e1a0100c 	mov	r1, ip
 c0014c0:	ebfffe99 	bl	c000f2c <BitmapPush>
}
 c0014c4:	e24bd00c 	sub	sp, fp, #12
 c0014c8:	e89d6800 	ldm	sp, {fp, sp, lr}
 c0014cc:	e12fff1e 	bx	lr
 c0014d0:	0c00654c 	.word	0x0c00654c

0c0014d4 <CursorPop>:
* ret:		none
* modify:
* comment:		
*********************************************************************************************/
void CursorPop()
{
 c0014d4:	e1a0c00d 	mov	ip, sp
 c0014d8:	e92dd800 	push	{fp, ip, lr, pc}
 c0014dc:	e24cb004 	sub	fp, ip, #4
 c0014e0:	e24dd008 	sub	sp, sp, #8
	BitmapPop(ulMouseX, ulMouseY, Stru_Bitmap_gbMouse);
 c0014e4:	e59f3038 	ldr	r3, [pc, #56]	; c001524 <CursorPop+0x50>
 c0014e8:	e1d3e0b0 	ldrh	lr, [r3]
 c0014ec:	e59f3034 	ldr	r3, [pc, #52]	; c001528 <CursorPop+0x54>
 c0014f0:	e1d3c0b0 	ldrh	ip, [r3]
 c0014f4:	e59f3030 	ldr	r3, [pc, #48]	; c00152c <CursorPop+0x58>
 c0014f8:	e1a0200d 	mov	r2, sp
 c0014fc:	e2831008 	add	r1, r3, #8
 c001500:	e8910003 	ldm	r1, {r0, r1}
 c001504:	e8820003 	stm	r2, {r0, r1}
 c001508:	e893000c 	ldm	r3, {r2, r3}
 c00150c:	e1a0000e 	mov	r0, lr
 c001510:	e1a0100c 	mov	r1, ip
 c001514:	ebffff1f 	bl	c001198 <BitmapPop>
}
 c001518:	e24bd00c 	sub	sp, fp, #12
 c00151c:	e89d6800 	ldm	sp, {fp, sp, lr}
 c001520:	e12fff1e 	bx	lr
 c001524:	0c007af6 	.word	0x0c007af6
 c001528:	0c007af4 	.word	0x0c007af4
 c00152c:	0c00654c 	.word	0x0c00654c

0c001530 <CursorView>:
* ret:		none
* modify:
* comment:		
*********************************************************************************************/
void CursorView(INT16U x, INT16U y)
{
 c001530:	e1a0c00d 	mov	ip, sp
 c001534:	e92dd800 	push	{fp, ip, lr, pc}
 c001538:	e24cb004 	sub	fp, ip, #4
 c00153c:	e24dd010 	sub	sp, sp, #16
 c001540:	e1a02000 	mov	r2, r0
 c001544:	e1a03001 	mov	r3, r1
 c001548:	e14b20be 	strh	r2, [fp, #-14]
 c00154c:	e14b31b0 	strh	r3, [fp, #-16]
	CursorPush(x, y);
 c001550:	e15b20be 	ldrh	r2, [fp, #-14]
 c001554:	e15b31b0 	ldrh	r3, [fp, #-16]
 c001558:	e1a00002 	mov	r0, r2
 c00155c:	e1a01003 	mov	r1, r3
 c001560:	ebffffc4 	bl	c001478 <CursorPush>
	BitmapView(x, y, Stru_Bitmap_gbMouse);
 c001564:	e15be0be 	ldrh	lr, [fp, #-14]
 c001568:	e15bc1b0 	ldrh	ip, [fp, #-16]
 c00156c:	e59f3028 	ldr	r3, [pc, #40]	; c00159c <CursorView+0x6c>
 c001570:	e1a0200d 	mov	r2, sp
 c001574:	e2831008 	add	r1, r3, #8
 c001578:	e8910003 	ldm	r1, {r0, r1}
 c00157c:	e8820003 	stm	r2, {r0, r1}
 c001580:	e893000c 	ldm	r3, {r2, r3}
 c001584:	e1a0000e 	mov	r0, lr
 c001588:	e1a0100c 	mov	r1, ip
 c00158c:	ebfffe03 	bl	c000da0 <BitmapView>
}
 c001590:	e24bd00c 	sub	sp, fp, #12
 c001594:	e89d6800 	ldm	sp, {fp, sp, lr}
 c001598:	e12fff1e 	bx	lr
 c00159c:	0c00654c 	.word	0x0c00654c

0c0015a0 <Eint4567_init>:
extern void D8Led_symbol(int value);
void actualizar_estado_boton_desde_timer_int(void);

/*--- codigo de funciones ---*/
void Eint4567_init(void)
{
 c0015a0:	e1a0c00d 	mov	ip, sp
 c0015a4:	e92dd800 	push	{fp, ip, lr, pc}
 c0015a8:	e24cb004 	sub	fp, ip, #4
	/* Configuracion del controlador de interrupciones. Estos registros estn definidos en 44b.h */
	rI_ISPC    = 0x3ffffff;	// Borra INTPND escribiendo 1s en I_ISPC
 c0015ac:	e59f30a4 	ldr	r3, [pc, #164]	; c001658 <Eint4567_init+0xb8>
 c0015b0:	e3e0233f 	mvn	r2, #-67108864	; 0xfc000000
 c0015b4:	e5832000 	str	r2, [r3]
	rEXTINTPND = 0xf;       // Borra EXTINTPND escribiendo 1s en el propio registro
 c0015b8:	e59f309c 	ldr	r3, [pc, #156]	; c00165c <Eint4567_init+0xbc>
 c0015bc:	e3a0200f 	mov	r2, #15
 c0015c0:	e5832000 	str	r2, [r3]
	rINTMOD    = 0x0;		// Configura las linas como de tipo IRQ
 c0015c4:	e59f3094 	ldr	r3, [pc, #148]	; c001660 <Eint4567_init+0xc0>
 c0015c8:	e3a02000 	mov	r2, #0
 c0015cc:	e5832000 	str	r2, [r3]
	rINTCON    = 0x1;	    // Habilita int. vectorizadas y la linea IRQ (FIQ no)
 c0015d0:	e3a0361e 	mov	r3, #31457280	; 0x1e00000
 c0015d4:	e3a02001 	mov	r2, #1
 c0015d8:	e5832000 	str	r2, [r3]
	rINTMSK    = rINTMSK & ~(BIT_EINT4567); // Enmascara todas las lineas excepto eint4567, el bit global y el timer0
 c0015dc:	e59f3080 	ldr	r3, [pc, #128]	; c001664 <Eint4567_init+0xc4>
 c0015e0:	e59f207c 	ldr	r2, [pc, #124]	; c001664 <Eint4567_init+0xc4>
 c0015e4:	e5922000 	ldr	r2, [r2]
 c0015e8:	e3c22602 	bic	r2, r2, #2097152	; 0x200000
 c0015ec:	e5832000 	str	r2, [r3]

	/* Establece la rutina de servicio para Eint4567 */
	pISR_EINT4567 = (int)Eint4567_ISR;
 c0015f0:	e59f3070 	ldr	r3, [pc, #112]	; c001668 <Eint4567_init+0xc8>
 c0015f4:	e59f2070 	ldr	r2, [pc, #112]	; c00166c <Eint4567_init+0xcc>
 c0015f8:	e5832000 	str	r2, [r3]

	/* Configuracion del puerto G */
	rPCONG  = 0xffff;        		// Establece la funcion de los pines (EINT0-7)
 c0015fc:	e59f306c 	ldr	r3, [pc, #108]	; c001670 <Eint4567_init+0xd0>
 c001600:	e59f206c 	ldr	r2, [pc, #108]	; c001674 <Eint4567_init+0xd4>
 c001604:	e5832000 	str	r2, [r3]
	rPUPG   = 0x0;                  // Habilita el "pull up" del puerto
 c001608:	e59f3068 	ldr	r3, [pc, #104]	; c001678 <Eint4567_init+0xd8>
 c00160c:	e3a02000 	mov	r2, #0
 c001610:	e5832000 	str	r2, [r3]
	rEXTINT = rEXTINT | 0x22222222;   // Configura las lineas de int. como de flanco de bajada
 c001614:	e59f2060 	ldr	r2, [pc, #96]	; c00167c <Eint4567_init+0xdc>
 c001618:	e59f305c 	ldr	r3, [pc, #92]	; c00167c <Eint4567_init+0xdc>
 c00161c:	e5931000 	ldr	r1, [r3]
 c001620:	e59f3058 	ldr	r3, [pc, #88]	; c001680 <Eint4567_init+0xe0>
 c001624:	e1813003 	orr	r3, r1, r3
 c001628:	e5823000 	str	r3, [r2]

	/* Por precaucion, se vuelven a borrar los bits de INTPND y EXTINTPND */
	rI_ISPC    |= (BIT_EINT4567);
 c00162c:	e59f3024 	ldr	r3, [pc, #36]	; c001658 <Eint4567_init+0xb8>
 c001630:	e59f2020 	ldr	r2, [pc, #32]	; c001658 <Eint4567_init+0xb8>
 c001634:	e5922000 	ldr	r2, [r2]
 c001638:	e3822602 	orr	r2, r2, #2097152	; 0x200000
 c00163c:	e5832000 	str	r2, [r3]
	rEXTINTPND = 0xf;
 c001640:	e59f3014 	ldr	r3, [pc, #20]	; c00165c <Eint4567_init+0xbc>
 c001644:	e3a0200f 	mov	r2, #15
 c001648:	e5832000 	str	r2, [r3]
}
 c00164c:	e24bd00c 	sub	sp, fp, #12
 c001650:	e89d6800 	ldm	sp, {fp, sp, lr}
 c001654:	e12fff1e 	bx	lr
 c001658:	01e00024 	.word	0x01e00024
 c00165c:	01d20054 	.word	0x01d20054
 c001660:	01e00008 	.word	0x01e00008
 c001664:	01e0000c 	.word	0x01e0000c
 c001668:	0c7fff74 	.word	0x0c7fff74
 c00166c:	0c001684 	.word	0x0c001684
 c001670:	01d20040 	.word	0x01d20040
 c001674:	0000ffff 	.word	0x0000ffff
 c001678:	01d20048 	.word	0x01d20048
 c00167c:	01d20050 	.word	0x01d20050
 c001680:	22222222 	.word	0x22222222

0c001684 <Eint4567_ISR>:

// ESTADO 1 / pulsacion detectada
void Eint4567_ISR(void)
{
 c001684:	e52dc004 	push	{ip}		; (str ip, [sp, #-4]!)
 c001688:	e1a0c00d 	mov	ip, sp
 c00168c:	e92dd80f 	push	{r0, r1, r2, r3, fp, ip, lr, pc}
 c001690:	e24cb004 	sub	fp, ip, #4
 c001694:	e24dd008 	sub	sp, sp, #8
	/* Deshabilitar las interrupciones de los pulsadores */
	rINTMSK |= BIT_EINT4567;
 c001698:	e59f30a8 	ldr	r3, [pc, #168]	; c001748 <Eint4567_ISR+0xc4>
 c00169c:	e59f20a4 	ldr	r2, [pc, #164]	; c001748 <Eint4567_ISR+0xc4>
 c0016a0:	e5922000 	ldr	r2, [r2]
 c0016a4:	e3822602 	orr	r2, r2, #2097152	; 0x200000
 c0016a8:	e5832000 	str	r2, [r3]

	/* Identificar la interrupcion (hay dos pulsadores)*/
	int which_int = rEXTINTPND;
 c0016ac:	e59f3098 	ldr	r3, [pc, #152]	; c00174c <Eint4567_ISR+0xc8>
 c0016b0:	e5933000 	ldr	r3, [r3]
 c0016b4:	e50b3020 	str	r3, [fp, #-32]	; 0xffffffe0
	switch (which_int)
 c0016b8:	e51b3020 	ldr	r3, [fp, #-32]	; 0xffffffe0
 c0016bc:	e3530004 	cmp	r3, #4
 c0016c0:	0a000002 	beq	c0016d0 <Eint4567_ISR+0x4c>
 c0016c4:	e3530008 	cmp	r3, #8
 c0016c8:	0a000004 	beq	c0016e0 <Eint4567_ISR+0x5c>
		case 8:
			buttonNumber = 2;
			//int_count--; // decrementamos el contador
			break;
		default:
			break;
 c0016cc:	ea000007 	b	c0016f0 <Eint4567_ISR+0x6c>
	int which_int = rEXTINTPND;
	switch (which_int)
	{
		// Boton izquierdo
		case 4:
			buttonNumber = 1;
 c0016d0:	e59f3078 	ldr	r3, [pc, #120]	; c001750 <Eint4567_ISR+0xcc>
 c0016d4:	e3a02001 	mov	r2, #1
 c0016d8:	e5832000 	str	r2, [r3]
			//int_count++; // incrementamos el contador
			break;
 c0016dc:	ea000003 	b	c0016f0 <Eint4567_ISR+0x6c>
		// Boton derecho
		case 8:
			buttonNumber = 2;
 c0016e0:	e59f3068 	ldr	r3, [pc, #104]	; c001750 <Eint4567_ISR+0xcc>
 c0016e4:	e3a02002 	mov	r2, #2
 c0016e8:	e5832000 	str	r2, [r3]
			//int_count--; // decrementamos el contador
			break;
 c0016ec:	e1a00000 	nop			; (mov r0, r0)
		default:
			break;
	}
	//15 20
	cuenta_espera = 15;
 c0016f0:	e59f305c 	ldr	r3, [pc, #92]	; c001754 <Eint4567_ISR+0xd0>
 c0016f4:	e3a0200f 	mov	r2, #15
 c0016f8:	e5832000 	str	r2, [r3]
	estado_boton = rebotes_subida;
 c0016fc:	e59f3054 	ldr	r3, [pc, #84]	; c001758 <Eint4567_ISR+0xd4>
 c001700:	e3a02001 	mov	r2, #1
 c001704:	e5c32000 	strb	r2, [r3]
	mantenido = 1;
 c001708:	e59f304c 	ldr	r3, [pc, #76]	; c00175c <Eint4567_ISR+0xd8>
 c00170c:	e3a02001 	mov	r2, #1
 c001710:	e5832000 	str	r2, [r3]
	// Llamada al timer para avisarle que tiene que gestionar
	timer2_Eint4567();
 c001714:	eb0012d4 	bl	c00626c <timer2_Eint4567>
	/* Finalizar ISR */
	rEXTINTPND = 0xf;				// borra los bits en EXTINTPND
 c001718:	e59f302c 	ldr	r3, [pc, #44]	; c00174c <Eint4567_ISR+0xc8>
 c00171c:	e3a0200f 	mov	r2, #15
 c001720:	e5832000 	str	r2, [r3]
	rI_ISPC   |= BIT_EINT4567;		// borra el bit pendiente en INTPND
 c001724:	e59f3034 	ldr	r3, [pc, #52]	; c001760 <Eint4567_ISR+0xdc>
 c001728:	e59f2030 	ldr	r2, [pc, #48]	; c001760 <Eint4567_ISR+0xdc>
 c00172c:	e5922000 	ldr	r2, [r2]
 c001730:	e3822602 	orr	r2, r2, #2097152	; 0x200000
 c001734:	e5832000 	str	r2, [r3]

}
 c001738:	e24bd01c 	sub	sp, fp, #28
 c00173c:	e89d680f 	ldm	sp, {r0, r1, r2, r3, fp, sp, lr}
 c001740:	e49dc004 	pop	{ip}		; (ldr ip, [sp], #4)
 c001744:	e25ef004 	subs	pc, lr, #4
 c001748:	01e0000c 	.word	0x01e0000c
 c00174c:	01d20054 	.word	0x01d20054
 c001750:	0c007a14 	.word	0x0c007a14
 c001754:	0c007a10 	.word	0x0c007a10
 c001758:	0c007af8 	.word	0x0c007af8
 c00175c:	0c007a08 	.word	0x0c007a08
 c001760:	01e00024 	.word	0x01e00024

0c001764 <actualizar_estado_boton_desde_timer_int>:

void actualizar_estado_boton_desde_timer_int() {
 c001764:	e1a0c00d 	mov	ip, sp
 c001768:	e92dd800 	push	{fp, ip, lr, pc}
 c00176c:	e24cb004 	sub	fp, ip, #4
	switch(estado_boton) {
 c001770:	e59f317c 	ldr	r3, [pc, #380]	; c0018f4 <actualizar_estado_boton_desde_timer_int+0x190>
 c001774:	e5d33000 	ldrb	r3, [r3]
 c001778:	e20330ff 	and	r3, r3, #255	; 0xff
 c00177c:	e3530004 	cmp	r3, #4
 c001780:	979ff103 	ldrls	pc, [pc, r3, lsl #2]
 c001784:	ea000057 	b	c0018e8 <actualizar_estado_boton_desde_timer_int+0x184>
 c001788:	0c0018e8 	.word	0x0c0018e8
 c00178c:	0c00179c 	.word	0x0c00179c
 c001790:	0c0017dc 	.word	0x0c0017dc
 c001794:	0c00184c 	.word	0x0c00184c
 c001798:	0c001880 	.word	0x0c001880
			case inicial: {
				break;
			}
			case rebotes_subida: {
				cuenta_espera--;
 c00179c:	e59f3154 	ldr	r3, [pc, #340]	; c0018f8 <actualizar_estado_boton_desde_timer_int+0x194>
 c0017a0:	e5933000 	ldr	r3, [r3]
 c0017a4:	e2432001 	sub	r2, r3, #1
 c0017a8:	e59f3148 	ldr	r3, [pc, #328]	; c0018f8 <actualizar_estado_boton_desde_timer_int+0x194>
 c0017ac:	e5832000 	str	r2, [r3]
				if (cuenta_espera == 0) {
 c0017b0:	e59f3140 	ldr	r3, [pc, #320]	; c0018f8 <actualizar_estado_boton_desde_timer_int+0x194>
 c0017b4:	e5933000 	ldr	r3, [r3]
 c0017b8:	e3530000 	cmp	r3, #0
 c0017bc:	1a000044 	bne	c0018d4 <actualizar_estado_boton_desde_timer_int+0x170>
					estado_boton = leer_boton;
 c0017c0:	e59f312c 	ldr	r3, [pc, #300]	; c0018f4 <actualizar_estado_boton_desde_timer_int+0x190>
 c0017c4:	e3a02002 	mov	r2, #2
 c0017c8:	e5c32000 	strb	r2, [r3]
					cuenta_espera = 10;
 c0017cc:	e59f3124 	ldr	r3, [pc, #292]	; c0018f8 <actualizar_estado_boton_desde_timer_int+0x194>
 c0017d0:	e3a0200a 	mov	r2, #10
 c0017d4:	e5832000 	str	r2, [r3]
					break;
 c0017d8:	ea000042 	b	c0018e8 <actualizar_estado_boton_desde_timer_int+0x184>
				}
				break;
			}
			case leer_boton: {
				cuenta_espera--;
 c0017dc:	e59f3114 	ldr	r3, [pc, #276]	; c0018f8 <actualizar_estado_boton_desde_timer_int+0x194>
 c0017e0:	e5933000 	ldr	r3, [r3]
 c0017e4:	e2432001 	sub	r2, r3, #1
 c0017e8:	e59f3108 	ldr	r3, [pc, #264]	; c0018f8 <actualizar_estado_boton_desde_timer_int+0x194>
 c0017ec:	e5832000 	str	r2, [r3]
				if (cuenta_espera == 0) {
 c0017f0:	e59f3100 	ldr	r3, [pc, #256]	; c0018f8 <actualizar_estado_boton_desde_timer_int+0x194>
 c0017f4:	e5933000 	ldr	r3, [r3]
 c0017f8:	e3530000 	cmp	r3, #0
 c0017fc:	1a000036 	bne	c0018dc <actualizar_estado_boton_desde_timer_int+0x178>
					if ((rPDATG & 0xC0) == 0xC0) {
 c001800:	e59f30f4 	ldr	r3, [pc, #244]	; c0018fc <actualizar_estado_boton_desde_timer_int+0x198>
 c001804:	e5933000 	ldr	r3, [r3]
 c001808:	e20330c0 	and	r3, r3, #192	; 0xc0
 c00180c:	e35300c0 	cmp	r3, #192	; 0xc0
 c001810:	1a000009 	bne	c00183c <actualizar_estado_boton_desde_timer_int+0xd8>
						estado_boton = rebotes_bajada;
 c001814:	e59f30d8 	ldr	r3, [pc, #216]	; c0018f4 <actualizar_estado_boton_desde_timer_int+0x190>
 c001818:	e3a02003 	mov	r2, #3
 c00181c:	e5c32000 	strb	r2, [r3]
						cuenta_espera = 20;
 c001820:	e59f30d0 	ldr	r3, [pc, #208]	; c0018f8 <actualizar_estado_boton_desde_timer_int+0x194>
 c001824:	e3a02014 	mov	r2, #20
 c001828:	e5832000 	str	r2, [r3]
						mantenido = 0;
 c00182c:	e59f30cc 	ldr	r3, [pc, #204]	; c001900 <actualizar_estado_boton_desde_timer_int+0x19c>
 c001830:	e3a02000 	mov	r2, #0
 c001834:	e5832000 	str	r2, [r3]
					}
					else {
						cuenta_espera = 10;
					}
				}
				break;
 c001838:	ea00002a 	b	c0018e8 <actualizar_estado_boton_desde_timer_int+0x184>
						estado_boton = rebotes_bajada;
						cuenta_espera = 20;
						mantenido = 0;
					}
					else {
						cuenta_espera = 10;
 c00183c:	e59f30b4 	ldr	r3, [pc, #180]	; c0018f8 <actualizar_estado_boton_desde_timer_int+0x194>
 c001840:	e3a0200a 	mov	r2, #10
 c001844:	e5832000 	str	r2, [r3]
					}
				}
				break;
 c001848:	ea000026 	b	c0018e8 <actualizar_estado_boton_desde_timer_int+0x184>
			}
			case rebotes_bajada: {
				cuenta_espera--;
 c00184c:	e59f30a4 	ldr	r3, [pc, #164]	; c0018f8 <actualizar_estado_boton_desde_timer_int+0x194>
 c001850:	e5933000 	ldr	r3, [r3]
 c001854:	e2432001 	sub	r2, r3, #1
 c001858:	e59f3098 	ldr	r3, [pc, #152]	; c0018f8 <actualizar_estado_boton_desde_timer_int+0x194>
 c00185c:	e5832000 	str	r2, [r3]
				if (cuenta_espera == 0) {
 c001860:	e59f3090 	ldr	r3, [pc, #144]	; c0018f8 <actualizar_estado_boton_desde_timer_int+0x194>
 c001864:	e5933000 	ldr	r3, [r3]
 c001868:	e3530000 	cmp	r3, #0
 c00186c:	1a00001c 	bne	c0018e4 <actualizar_estado_boton_desde_timer_int+0x180>
					estado_boton = habilitar_interrupciones;
 c001870:	e59f307c 	ldr	r3, [pc, #124]	; c0018f4 <actualizar_estado_boton_desde_timer_int+0x190>
 c001874:	e3a02004 	mov	r2, #4
 c001878:	e5c32000 	strb	r2, [r3]
					break;
 c00187c:	ea000019 	b	c0018e8 <actualizar_estado_boton_desde_timer_int+0x184>
				}
				break;
			}
			case habilitar_interrupciones: {
				cuenta_espera = 0;
 c001880:	e59f3070 	ldr	r3, [pc, #112]	; c0018f8 <actualizar_estado_boton_desde_timer_int+0x194>
 c001884:	e3a02000 	mov	r2, #0
 c001888:	e5832000 	str	r2, [r3]
				estado_boton = inicial;
 c00188c:	e59f3060 	ldr	r3, [pc, #96]	; c0018f4 <actualizar_estado_boton_desde_timer_int+0x190>
 c001890:	e3a02000 	mov	r2, #0
 c001894:	e5c32000 	strb	r2, [r3]
				rEXTINTPND = 0xf;				// borra los bits en EXTINTPND
 c001898:	e59f3064 	ldr	r3, [pc, #100]	; c001904 <actualizar_estado_boton_desde_timer_int+0x1a0>
 c00189c:	e3a0200f 	mov	r2, #15
 c0018a0:	e5832000 	str	r2, [r3]
				rI_ISPC   |= BIT_EINT4567;		// borra el bit pendiente en INTPND
 c0018a4:	e59f305c 	ldr	r3, [pc, #92]	; c001908 <actualizar_estado_boton_desde_timer_int+0x1a4>
 c0018a8:	e59f2058 	ldr	r2, [pc, #88]	; c001908 <actualizar_estado_boton_desde_timer_int+0x1a4>
 c0018ac:	e5922000 	ldr	r2, [r2]
 c0018b0:	e3822602 	orr	r2, r2, #2097152	; 0x200000
 c0018b4:	e5832000 	str	r2, [r3]
				// Activamos las interrupciones
				rINTMSK &= ~(BIT_EINT4567);
 c0018b8:	e59f304c 	ldr	r3, [pc, #76]	; c00190c <actualizar_estado_boton_desde_timer_int+0x1a8>
 c0018bc:	e59f2048 	ldr	r2, [pc, #72]	; c00190c <actualizar_estado_boton_desde_timer_int+0x1a8>
 c0018c0:	e5922000 	ldr	r2, [r2]
 c0018c4:	e3c22602 	bic	r2, r2, #2097152	; 0x200000
 c0018c8:	e5832000 	str	r2, [r3]
				//D8Led_symbol(int_count&0x000f); // sacamos el valor por pantalla (mdulo 16)
				break;
 c0018cc:	e1a00000 	nop			; (mov r0, r0)
 c0018d0:	ea000004 	b	c0018e8 <actualizar_estado_boton_desde_timer_int+0x184>
				if (cuenta_espera == 0) {
					estado_boton = leer_boton;
					cuenta_espera = 10;
					break;
				}
				break;
 c0018d4:	e1a00000 	nop			; (mov r0, r0)
 c0018d8:	ea000002 	b	c0018e8 <actualizar_estado_boton_desde_timer_int+0x184>
					}
					else {
						cuenta_espera = 10;
					}
				}
				break;
 c0018dc:	e1a00000 	nop			; (mov r0, r0)
 c0018e0:	ea000000 	b	c0018e8 <actualizar_estado_boton_desde_timer_int+0x184>
				cuenta_espera--;
				if (cuenta_espera == 0) {
					estado_boton = habilitar_interrupciones;
					break;
				}
				break;
 c0018e4:	e1a00000 	nop			; (mov r0, r0)
				rINTMSK &= ~(BIT_EINT4567);
				//D8Led_symbol(int_count&0x000f); // sacamos el valor por pantalla (mdulo 16)
				break;
			}
	}
}
 c0018e8:	e24bd00c 	sub	sp, fp, #12
 c0018ec:	e89d6800 	ldm	sp, {fp, sp, lr}
 c0018f0:	e12fff1e 	bx	lr
 c0018f4:	0c007af8 	.word	0x0c007af8
 c0018f8:	0c007a10 	.word	0x0c007a10
 c0018fc:	01d20044 	.word	0x01d20044
 c001900:	0c007a08 	.word	0x0c007a08
 c001904:	01d20054 	.word	0x01d20054
 c001908:	01e00024 	.word	0x01e00024
 c00190c:	01e0000c 	.word	0x01e0000c

0c001910 <botonPulsado>:

/* Devuelve el boton pulsado */
unsigned int botonPulsado(void) {
 c001910:	e1a0c00d 	mov	ip, sp
 c001914:	e92dd800 	push	{fp, ip, lr, pc}
 c001918:	e24cb004 	sub	fp, ip, #4
 c00191c:	e24dd008 	sub	sp, sp, #8
	int aux = buttonNumber;
 c001920:	e59f3024 	ldr	r3, [pc, #36]	; c00194c <botonPulsado+0x3c>
 c001924:	e5933000 	ldr	r3, [r3]
 c001928:	e50b3010 	str	r3, [fp, #-16]
	buttonNumber = 0;
 c00192c:	e59f3018 	ldr	r3, [pc, #24]	; c00194c <botonPulsado+0x3c>
 c001930:	e3a02000 	mov	r2, #0
 c001934:	e5832000 	str	r2, [r3]
	return aux;
 c001938:	e51b3010 	ldr	r3, [fp, #-16]
}
 c00193c:	e1a00003 	mov	r0, r3
 c001940:	e24bd00c 	sub	sp, fp, #12
 c001944:	e89d6800 	ldm	sp, {fp, sp, lr}
 c001948:	e12fff1e 	bx	lr
 c00194c:	0c007a14 	.word	0x0c007a14

0c001950 <getMantenido>:

/* Devuelve el boton pulsado */
unsigned int getMantenido(void) {
 c001950:	e1a0c00d 	mov	ip, sp
 c001954:	e92dd800 	push	{fp, ip, lr, pc}
 c001958:	e24cb004 	sub	fp, ip, #4
	return mantenido;
 c00195c:	e59f3010 	ldr	r3, [pc, #16]	; c001974 <getMantenido+0x24>
 c001960:	e5933000 	ldr	r3, [r3]
}
 c001964:	e1a00003 	mov	r0, r3
 c001968:	e24bd00c 	sub	sp, fp, #12
 c00196c:	e89d6800 	ldm	sp, {fp, sp, lr}
 c001970:	e12fff1e 	bx	lr
 c001974:	0c007a08 	.word	0x0c007a08

0c001978 <Lcd_Init>:
void Lcd_Draw_Box_Pista(INT16 usLeft, INT16 usTop, INT16 usRight,
		INT16 usBottom, INT8U ucColor);
void Lcd_DspAscII8x16(INT16U x0, INT16U y0, INT8U ForeColor, INT8U * s);

/*--- codigo de la funcion ---*/
void Lcd_Init(void) {
 c001978:	e1a0c00d 	mov	ip, sp
 c00197c:	e92dd800 	push	{fp, ip, lr, pc}
 c001980:	e24cb004 	sub	fp, ip, #4
	rDITHMODE = 0x1223a;
 c001984:	e59f30fc 	ldr	r3, [pc, #252]	; c001a88 <Lcd_Init+0x110>
 c001988:	e59f20fc 	ldr	r2, [pc, #252]	; c001a8c <Lcd_Init+0x114>
 c00198c:	e5832000 	str	r2, [r3]
	rDP1_2 = 0x5a5a;
 c001990:	e59f30f8 	ldr	r3, [pc, #248]	; c001a90 <Lcd_Init+0x118>
 c001994:	e59f20f8 	ldr	r2, [pc, #248]	; c001a94 <Lcd_Init+0x11c>
 c001998:	e5832000 	str	r2, [r3]
	rDP4_7 = 0x366cd9b;
 c00199c:	e59f30f4 	ldr	r3, [pc, #244]	; c001a98 <Lcd_Init+0x120>
 c0019a0:	e59f20f4 	ldr	r2, [pc, #244]	; c001a9c <Lcd_Init+0x124>
 c0019a4:	e5832000 	str	r2, [r3]
	rDP3_5 = 0xda5a7;
 c0019a8:	e59f30f0 	ldr	r3, [pc, #240]	; c001aa0 <Lcd_Init+0x128>
 c0019ac:	e59f20f0 	ldr	r2, [pc, #240]	; c001aa4 <Lcd_Init+0x12c>
 c0019b0:	e5832000 	str	r2, [r3]
	rDP2_3 = 0xad7;
 c0019b4:	e59f30ec 	ldr	r3, [pc, #236]	; c001aa8 <Lcd_Init+0x130>
 c0019b8:	e59f20ec 	ldr	r2, [pc, #236]	; c001aac <Lcd_Init+0x134>
 c0019bc:	e5832000 	str	r2, [r3]
	rDP5_7 = 0xfeda5b7;
 c0019c0:	e59f30e8 	ldr	r3, [pc, #232]	; c001ab0 <Lcd_Init+0x138>
 c0019c4:	e59f20e8 	ldr	r2, [pc, #232]	; c001ab4 <Lcd_Init+0x13c>
 c0019c8:	e5832000 	str	r2, [r3]
	rDP3_4 = 0xebd7;
 c0019cc:	e59f30e4 	ldr	r3, [pc, #228]	; c001ab8 <Lcd_Init+0x140>
 c0019d0:	e59f20e4 	ldr	r2, [pc, #228]	; c001abc <Lcd_Init+0x144>
 c0019d4:	e5832000 	str	r2, [r3]
	rDP4_5 = 0xebfd7;
 c0019d8:	e59f30e0 	ldr	r3, [pc, #224]	; c001ac0 <Lcd_Init+0x148>
 c0019dc:	e59f20e0 	ldr	r2, [pc, #224]	; c001ac4 <Lcd_Init+0x14c>
 c0019e0:	e5832000 	str	r2, [r3]
	rDP6_7 = 0x7efdfbf;
 c0019e4:	e59f30dc 	ldr	r3, [pc, #220]	; c001ac8 <Lcd_Init+0x150>
 c0019e8:	e59f20dc 	ldr	r2, [pc, #220]	; c001acc <Lcd_Init+0x154>
 c0019ec:	e5832000 	str	r2, [r3]

	rLCDCON1 = (0) | (1 << 5) | (MVAL_USED << 7) | (0x0 << 8) | (0x0 << 10)
 c0019f0:	e3a0361f 	mov	r3, #32505856	; 0x1f00000
 c0019f4:	e59f20d4 	ldr	r2, [pc, #212]	; c001ad0 <Lcd_Init+0x158>
 c0019f8:	e5832000 	str	r2, [r3]
			| (CLKVAL_GREY16 << 12);
	rLCDCON2 = (LINEVAL) | (HOZVAL << 10) | (10 << 21);
 c0019fc:	e59f30d0 	ldr	r3, [pc, #208]	; c001ad4 <Lcd_Init+0x15c>
 c001a00:	e59f20d0 	ldr	r2, [pc, #208]	; c001ad8 <Lcd_Init+0x160>
 c001a04:	e5832000 	str	r2, [r3]
	rLCDSADDR1 = (0x2 << 27)
 c001a08:	e59f30cc 	ldr	r3, [pc, #204]	; c001adc <Lcd_Init+0x164>
 c001a0c:	e59f20cc 	ldr	r2, [pc, #204]	; c001ae0 <Lcd_Init+0x168>
 c001a10:	e5832000 	str	r2, [r3]
			| (((LCD_ACTIVE_BUFFER >> 22) << 21) | M5D(LCD_ACTIVE_BUFFER>>1));
	rLCDSADDR2 = M5D(((LCD_ACTIVE_BUFFER+(SCR_XSIZE*LCD_YSIZE/2))>>1))
 c001a14:	e59f30c8 	ldr	r3, [pc, #200]	; c001ae4 <Lcd_Init+0x16c>
 c001a18:	e59f20c8 	ldr	r2, [pc, #200]	; c001ae8 <Lcd_Init+0x170>
 c001a1c:	e5832000 	str	r2, [r3]
			| (MVAL << 21);
	rLCDSADDR3 = (LCD_XSIZE / 4) | (((SCR_XSIZE - LCD_XSIZE)/4)<<9 );
 c001a20:	e59f30c4 	ldr	r3, [pc, #196]	; c001aec <Lcd_Init+0x174>
 c001a24:	e3a02050 	mov	r2, #80	; 0x50
 c001a28:	e5832000 	str	r2, [r3]
	// enable,4B_SNGL_SCAN,WDLY=8clk,WLH=8clk,
	rLCDCON1 = (1) | (1 << 5) | (MVAL_USED << 7) | (0x3 << 8) | (0x3 << 10)
 c001a2c:	e3a0361f 	mov	r3, #32505856	; 0x1f00000
 c001a30:	e59f20b8 	ldr	r2, [pc, #184]	; c001af0 <Lcd_Init+0x178>
 c001a34:	e5832000 	str	r2, [r3]
			| (CLKVAL_GREY16 << 12);
	rBLUELUT = 0xfa40;
 c001a38:	e59f30b4 	ldr	r3, [pc, #180]	; c001af4 <Lcd_Init+0x17c>
 c001a3c:	e59f20b4 	ldr	r2, [pc, #180]	; c001af8 <Lcd_Init+0x180>
 c001a40:	e5832000 	str	r2, [r3]
	//Enable LCD Logic and EL back-light.
	rPDATE = rPDATE & 0x0e;
 c001a44:	e59f30b0 	ldr	r3, [pc, #176]	; c001afc <Lcd_Init+0x184>
 c001a48:	e59f20ac 	ldr	r2, [pc, #172]	; c001afc <Lcd_Init+0x184>
 c001a4c:	e5922000 	ldr	r2, [r2]
 c001a50:	e202200e 	and	r2, r2, #14
 c001a54:	e5832000 	str	r2, [r3]

	//DMA ISR
	rINTMSK &= ~(BIT_GLOBAL | BIT_ZDMA0);
 c001a58:	e59f20a0 	ldr	r2, [pc, #160]	; c001b00 <Lcd_Init+0x188>
 c001a5c:	e59f309c 	ldr	r3, [pc, #156]	; c001b00 <Lcd_Init+0x188>
 c001a60:	e5933000 	ldr	r3, [r3]
 c001a64:	e3c33301 	bic	r3, r3, #67108864	; 0x4000000
 c001a68:	e3c33702 	bic	r3, r3, #524288	; 0x80000
 c001a6c:	e5823000 	str	r3, [r2]
	pISR_ZDMA0 = (int) Zdma0Done;
 c001a70:	e59f308c 	ldr	r3, [pc, #140]	; c001b04 <Lcd_Init+0x18c>
 c001a74:	e59f208c 	ldr	r2, [pc, #140]	; c001b08 <Lcd_Init+0x190>
 c001a78:	e5832000 	str	r2, [r3]
}
 c001a7c:	e24bd00c 	sub	sp, fp, #12
 c001a80:	e89d6800 	ldm	sp, {fp, sp, lr}
 c001a84:	e12fff1e 	bx	lr
 c001a88:	01f00044 	.word	0x01f00044
 c001a8c:	0001223a 	.word	0x0001223a
 c001a90:	01f00020 	.word	0x01f00020
 c001a94:	00005a5a 	.word	0x00005a5a
 c001a98:	01f00024 	.word	0x01f00024
 c001a9c:	0366cd9b 	.word	0x0366cd9b
 c001aa0:	01f00028 	.word	0x01f00028
 c001aa4:	000da5a7 	.word	0x000da5a7
 c001aa8:	01f0002c 	.word	0x01f0002c
 c001aac:	00000ad7 	.word	0x00000ad7
 c001ab0:	01f00030 	.word	0x01f00030
 c001ab4:	0feda5b7 	.word	0x0feda5b7
 c001ab8:	01f00034 	.word	0x01f00034
 c001abc:	0000ebd7 	.word	0x0000ebd7
 c001ac0:	01f00038 	.word	0x01f00038
 c001ac4:	000ebfd7 	.word	0x000ebfd7
 c001ac8:	01f0003c 	.word	0x01f0003c
 c001acc:	07efdfbf 	.word	0x07efdfbf
 c001ad0:	0000c020 	.word	0x0000c020
 c001ad4:	01f00004 	.word	0x01f00004
 c001ad8:	01413cef 	.word	0x01413cef
 c001adc:	01f00008 	.word	0x01f00008
 c001ae0:	16180000 	.word	0x16180000
 c001ae4:	01f0000c 	.word	0x01f0000c
 c001ae8:	01b84b00 	.word	0x01b84b00
 c001aec:	01f00010 	.word	0x01f00010
 c001af0:	0000cf21 	.word	0x0000cf21
 c001af4:	01f0001c 	.word	0x01f0001c
 c001af8:	0000fa40 	.word	0x0000fa40
 c001afc:	01d2002c 	.word	0x01d2002c
 c001b00:	01e0000c 	.word	0x01e0000c
 c001b04:	0c7fff6c 	.word	0x0c7fff6c
 c001b08:	0c0035d8 	.word	0x0c0035d8

0c001b0c <Lcd_Active_Clr>:
 * para:		none
 * ret:		none
 * modify:
 * comment:
 *********************************************************************************************/
void Lcd_Active_Clr(void) {
 c001b0c:	e1a0c00d 	mov	ip, sp
 c001b10:	e92dd800 	push	{fp, ip, lr, pc}
 c001b14:	e24cb004 	sub	fp, ip, #4
 c001b18:	e24dd008 	sub	sp, sp, #8
	INT32U i;
	INT32U *pDisp = (INT32U *) LCD_ACTIVE_BUFFER;
 c001b1c:	e3a036c3 	mov	r3, #204472320	; 0xc300000
 c001b20:	e50b3014 	str	r3, [fp, #-20]	; 0xffffffec

	for (i = 0; i < (SCR_XSIZE * SCR_YSIZE / 2 / 4); i++) {
 c001b24:	e3a03000 	mov	r3, #0
 c001b28:	e50b3010 	str	r3, [fp, #-16]
 c001b2c:	ea000008 	b	c001b54 <Lcd_Active_Clr+0x48>
		*pDisp++ = WHITE;
 c001b30:	e51b3014 	ldr	r3, [fp, #-20]	; 0xffffffec
 c001b34:	e3a02000 	mov	r2, #0
 c001b38:	e5832000 	str	r2, [r3]
 c001b3c:	e51b3014 	ldr	r3, [fp, #-20]	; 0xffffffec
 c001b40:	e2833004 	add	r3, r3, #4
 c001b44:	e50b3014 	str	r3, [fp, #-20]	; 0xffffffec
 *********************************************************************************************/
void Lcd_Active_Clr(void) {
	INT32U i;
	INT32U *pDisp = (INT32U *) LCD_ACTIVE_BUFFER;

	for (i = 0; i < (SCR_XSIZE * SCR_YSIZE / 2 / 4); i++) {
 c001b48:	e51b3010 	ldr	r3, [fp, #-16]
 c001b4c:	e2833001 	add	r3, r3, #1
 c001b50:	e50b3010 	str	r3, [fp, #-16]
 c001b54:	e51b2010 	ldr	r2, [fp, #-16]
 c001b58:	e59f3010 	ldr	r3, [pc, #16]	; c001b70 <Lcd_Active_Clr+0x64>
 c001b5c:	e1520003 	cmp	r2, r3
 c001b60:	9afffff2 	bls	c001b30 <Lcd_Active_Clr+0x24>
		*pDisp++ = WHITE;
	}
}
 c001b64:	e24bd00c 	sub	sp, fp, #12
 c001b68:	e89d6800 	ldm	sp, {fp, sp, lr}
 c001b6c:	e12fff1e 	bx	lr
 c001b70:	0000257f 	.word	0x0000257f

0c001b74 <LCD_GetPixel>:
 * para:		usX,usY -- pot's X-Y coordinate
 * ret:		pot's color value
 * modify:
 * comment:
 *********************************************************************************************/INT8U LCD_GetPixel(
		INT16U usX, INT16U usY) {
 c001b74:	e1a0c00d 	mov	ip, sp
 c001b78:	e92dd800 	push	{fp, ip, lr, pc}
 c001b7c:	e24cb004 	sub	fp, ip, #4
 c001b80:	e24dd010 	sub	sp, sp, #16
 c001b84:	e1a02000 	mov	r2, r0
 c001b88:	e1a03001 	mov	r3, r1
 c001b8c:	e14b21b6 	strh	r2, [fp, #-22]	; 0xffffffea
 c001b90:	e14b31b8 	strh	r3, [fp, #-24]	; 0xffffffe8
	INT8U ucColor;

	ucColor = *((INT8U*) (LCD_VIRTUAL_BUFFER + usY * SCR_XSIZE / 2 + usX / 8 * 4
 c001b94:	e15b21b8 	ldrh	r2, [fp, #-24]	; 0xffffffe8
 c001b98:	e1a03002 	mov	r3, r2
 c001b9c:	e1a03103 	lsl	r3, r3, #2
 c001ba0:	e0833002 	add	r3, r3, r2
 c001ba4:	e1a03303 	lsl	r3, r3, #6
 c001ba8:	e1a02fa3 	lsr	r2, r3, #31
 c001bac:	e0823003 	add	r3, r2, r3
 c001bb0:	e1a030c3 	asr	r3, r3, #1
 c001bb4:	e28336c3 	add	r3, r3, #204472320	; 0xc300000
 c001bb8:	e2833c96 	add	r3, r3, #38400	; 0x9600
 c001bbc:	e15b21b6 	ldrh	r2, [fp, #-22]	; 0xffffffea
 c001bc0:	e1a021a2 	lsr	r2, r2, #3
 c001bc4:	e1a02802 	lsl	r2, r2, #16
 c001bc8:	e1a02822 	lsr	r2, r2, #16
 c001bcc:	e1a02102 	lsl	r2, r2, #2
 c001bd0:	e0833002 	add	r3, r3, r2
			+ 3 - (usX % 8) / 2));
 c001bd4:	e2832003 	add	r2, r3, #3
 c001bd8:	e15b31b6 	ldrh	r3, [fp, #-22]	; 0xffffffea
 c001bdc:	e2033007 	and	r3, r3, #7
 c001be0:	e1a03803 	lsl	r3, r3, #16
 c001be4:	e1a03823 	lsr	r3, r3, #16
 c001be8:	e1a030a3 	lsr	r3, r3, #1
 c001bec:	e1a03803 	lsl	r3, r3, #16
 c001bf0:	e1a03823 	lsr	r3, r3, #16
 c001bf4:	e0633002 	rsb	r3, r3, r2
 * comment:
 *********************************************************************************************/INT8U LCD_GetPixel(
		INT16U usX, INT16U usY) {
	INT8U ucColor;

	ucColor = *((INT8U*) (LCD_VIRTUAL_BUFFER + usY * SCR_XSIZE / 2 + usX / 8 * 4
 c001bf8:	e5d33000 	ldrb	r3, [r3]
 c001bfc:	e54b300d 	strb	r3, [fp, #-13]
			+ 3 - (usX % 8) / 2));
	ucColor = (ucColor >> ((1 - (usX % 2)) * 4)) & 0x0f;
 c001c00:	e55b200d 	ldrb	r2, [fp, #-13]
 c001c04:	e15b31b6 	ldrh	r3, [fp, #-22]	; 0xffffffea
 c001c08:	e2033001 	and	r3, r3, #1
 c001c0c:	e3530000 	cmp	r3, #0
 c001c10:	1a000001 	bne	c001c1c <LCD_GetPixel+0xa8>
 c001c14:	e3a03004 	mov	r3, #4
 c001c18:	ea000000 	b	c001c20 <LCD_GetPixel+0xac>
 c001c1c:	e3a03000 	mov	r3, #0
 c001c20:	e1a03352 	asr	r3, r2, r3
 c001c24:	e20330ff 	and	r3, r3, #255	; 0xff
 c001c28:	e203300f 	and	r3, r3, #15
 c001c2c:	e54b300d 	strb	r3, [fp, #-13]
	return ucColor;
 c001c30:	e55b300d 	ldrb	r3, [fp, #-13]
}
 c001c34:	e1a00003 	mov	r0, r3
 c001c38:	e24bd00c 	sub	sp, fp, #12
 c001c3c:	e89d6800 	ldm	sp, {fp, sp, lr}
 c001c40:	e12fff1e 	bx	lr

0c001c44 <Lcd_Clr>:
 * para:		none
 * ret:		none
 * modify:
 * comment:
 *********************************************************************************************/
void Lcd_Clr(void) {
 c001c44:	e1a0c00d 	mov	ip, sp
 c001c48:	e92dd800 	push	{fp, ip, lr, pc}
 c001c4c:	e24cb004 	sub	fp, ip, #4
 c001c50:	e24dd008 	sub	sp, sp, #8
	INT32U i;
	INT32U *pDisp = (INT32U *) LCD_VIRTUAL_BUFFER;
 c001c54:	e59f304c 	ldr	r3, [pc, #76]	; c001ca8 <Lcd_Clr+0x64>
 c001c58:	e50b3014 	str	r3, [fp, #-20]	; 0xffffffec

	for (i = 0; i < (SCR_XSIZE * SCR_YSIZE / 2 / 4); i++) {
 c001c5c:	e3a03000 	mov	r3, #0
 c001c60:	e50b3010 	str	r3, [fp, #-16]
 c001c64:	ea000008 	b	c001c8c <Lcd_Clr+0x48>
		*pDisp++ = WHITE;
 c001c68:	e51b3014 	ldr	r3, [fp, #-20]	; 0xffffffec
 c001c6c:	e3a02000 	mov	r2, #0
 c001c70:	e5832000 	str	r2, [r3]
 c001c74:	e51b3014 	ldr	r3, [fp, #-20]	; 0xffffffec
 c001c78:	e2833004 	add	r3, r3, #4
 c001c7c:	e50b3014 	str	r3, [fp, #-20]	; 0xffffffec
 *********************************************************************************************/
void Lcd_Clr(void) {
	INT32U i;
	INT32U *pDisp = (INT32U *) LCD_VIRTUAL_BUFFER;

	for (i = 0; i < (SCR_XSIZE * SCR_YSIZE / 2 / 4); i++) {
 c001c80:	e51b3010 	ldr	r3, [fp, #-16]
 c001c84:	e2833001 	add	r3, r3, #1
 c001c88:	e50b3010 	str	r3, [fp, #-16]
 c001c8c:	e51b2010 	ldr	r2, [fp, #-16]
 c001c90:	e59f3014 	ldr	r3, [pc, #20]	; c001cac <Lcd_Clr+0x68>
 c001c94:	e1520003 	cmp	r2, r3
 c001c98:	9afffff2 	bls	c001c68 <Lcd_Clr+0x24>
		*pDisp++ = WHITE;
	}
}
 c001c9c:	e24bd00c 	sub	sp, fp, #12
 c001ca0:	e89d6800 	ldm	sp, {fp, sp, lr}
 c001ca4:	e12fff1e 	bx	lr
 c001ca8:	0c309600 	.word	0x0c309600
 c001cac:	0000257f 	.word	0x0000257f

0c001cb0 <LcdClrRect>:
 * ret:		none
 * modify:
 * comment:	also as clear screen function
 *********************************************************************************************/
void LcdClrRect(INT16 usLeft, INT16 usTop, INT16 usRight, INT16 usBottom,
		INT8U ucColor) {
 c001cb0:	e1a0c00d 	mov	ip, sp
 c001cb4:	e92dd800 	push	{fp, ip, lr, pc}
 c001cb8:	e24cb004 	sub	fp, ip, #4
 c001cbc:	e24dd018 	sub	sp, sp, #24
 c001cc0:	e14b01be 	strh	r0, [fp, #-30]	; 0xffffffe2
 c001cc4:	e14b12b0 	strh	r1, [fp, #-32]	; 0xffffffe0
 c001cc8:	e14b22b2 	strh	r2, [fp, #-34]	; 0xffffffde
 c001ccc:	e14b32b4 	strh	r3, [fp, #-36]	; 0xffffffdc
	INT16 i, k, l, m;

	INT32U ulColor = (ucColor << 28) | (ucColor << 24) | (ucColor << 20)
 c001cd0:	e5db3004 	ldrb	r3, [fp, #4]
 c001cd4:	e1a02e03 	lsl	r2, r3, #28
 c001cd8:	e5db3004 	ldrb	r3, [fp, #4]
 c001cdc:	e1a03c03 	lsl	r3, r3, #24
 c001ce0:	e1822003 	orr	r2, r2, r3
 c001ce4:	e5db3004 	ldrb	r3, [fp, #4]
 c001ce8:	e1a03a03 	lsl	r3, r3, #20
 c001cec:	e1822003 	orr	r2, r2, r3
			| (ucColor << 16) | (ucColor << 12) | (ucColor << 8)
 c001cf0:	e5db3004 	ldrb	r3, [fp, #4]
 c001cf4:	e1a03803 	lsl	r3, r3, #16
 c001cf8:	e1822003 	orr	r2, r2, r3
 c001cfc:	e5db3004 	ldrb	r3, [fp, #4]
 c001d00:	e1a03603 	lsl	r3, r3, #12
 c001d04:	e1822003 	orr	r2, r2, r3
 c001d08:	e5db3004 	ldrb	r3, [fp, #4]
 c001d0c:	e1a03403 	lsl	r3, r3, #8
 c001d10:	e1822003 	orr	r2, r2, r3
			| (ucColor << 4) | ucColor;
 c001d14:	e5db3004 	ldrb	r3, [fp, #4]
 c001d18:	e1a03203 	lsl	r3, r3, #4
 c001d1c:	e1822003 	orr	r2, r2, r3
 c001d20:	e5db3004 	ldrb	r3, [fp, #4]
 c001d24:	e1823003 	orr	r3, r2, r3
 *********************************************************************************************/
void LcdClrRect(INT16 usLeft, INT16 usTop, INT16 usRight, INT16 usBottom,
		INT8U ucColor) {
	INT16 i, k, l, m;

	INT32U ulColor = (ucColor << 28) | (ucColor << 24) | (ucColor << 20)
 c001d28:	e50b3018 	str	r3, [fp, #-24]	; 0xffffffe8
			| (ucColor << 16) | (ucColor << 12) | (ucColor << 8)
			| (ucColor << 4) | ucColor;

	i = k = l = m = 0;
 c001d2c:	e3a03000 	mov	r3, #0
 c001d30:	e14b31b4 	strh	r3, [fp, #-20]	; 0xffffffec
 c001d34:	e15b31b4 	ldrh	r3, [fp, #-20]	; 0xffffffec
 c001d38:	e14b31b2 	strh	r3, [fp, #-18]	; 0xffffffee
 c001d3c:	e15b31b2 	ldrh	r3, [fp, #-18]	; 0xffffffee
 c001d40:	e14b31b0 	strh	r3, [fp, #-16]
 c001d44:	e15b31b0 	ldrh	r3, [fp, #-16]
 c001d48:	e14b30be 	strh	r3, [fp, #-14]
	if ((usRight - usLeft) <= 8) {
 c001d4c:	e15b22f2 	ldrsh	r2, [fp, #-34]	; 0xffffffde
 c001d50:	e15b31fe 	ldrsh	r3, [fp, #-30]	; 0xffffffe2
 c001d54:	e0633002 	rsb	r3, r3, r2
 c001d58:	e3530008 	cmp	r3, #8
 c001d5c:	ca00005f 	bgt	c001ee0 <LcdClrRect+0x230>
		for (i = usTop; i <= usBottom; i++) {
 c001d60:	e15b32b0 	ldrh	r3, [fp, #-32]	; 0xffffffe0
 c001d64:	e14b30be 	strh	r3, [fp, #-14]
 c001d68:	ea000057 	b	c001ecc <LcdClrRect+0x21c>
			for (m = usLeft; m <= usRight; m++) {
 c001d6c:	e15b31be 	ldrh	r3, [fp, #-30]	; 0xffffffe2
 c001d70:	e14b31b4 	strh	r3, [fp, #-20]	; 0xffffffec
 c001d74:	ea00004d 	b	c001eb0 <LcdClrRect+0x200>
				LCD_PutPixel(m, i, ucColor);
 c001d78:	e15b20fe 	ldrsh	r2, [fp, #-14]
 c001d7c:	e1a03002 	mov	r3, r2
 c001d80:	e1a03103 	lsl	r3, r3, #2
 c001d84:	e0833002 	add	r3, r3, r2
 c001d88:	e1a03303 	lsl	r3, r3, #6
 c001d8c:	e1a02fa3 	lsr	r2, r3, #31
 c001d90:	e0823003 	add	r3, r2, r3
 c001d94:	e1a030c3 	asr	r3, r3, #1
 c001d98:	e28326c3 	add	r2, r3, #204472320	; 0xc300000
 c001d9c:	e2822c96 	add	r2, r2, #38400	; 0x9600
 c001da0:	e15b31f4 	ldrsh	r3, [fp, #-20]	; 0xffffffec
 c001da4:	e2831007 	add	r1, r3, #7
 c001da8:	e3530000 	cmp	r3, #0
 c001dac:	b1a03001 	movlt	r3, r1
 c001db0:	e1a031c3 	asr	r3, r3, #3
 c001db4:	e1a03803 	lsl	r3, r3, #16
 c001db8:	e1a03823 	lsr	r3, r3, #16
 c001dbc:	e1a03803 	lsl	r3, r3, #16
 c001dc0:	e1a03843 	asr	r3, r3, #16
 c001dc4:	e1a03103 	lsl	r3, r3, #2
 c001dc8:	e0823003 	add	r3, r2, r3
 c001dcc:	e1a01003 	mov	r1, r3
 c001dd0:	e15b20fe 	ldrsh	r2, [fp, #-14]
 c001dd4:	e1a03002 	mov	r3, r2
 c001dd8:	e1a03103 	lsl	r3, r3, #2
 c001ddc:	e0833002 	add	r3, r3, r2
 c001de0:	e1a03303 	lsl	r3, r3, #6
 c001de4:	e1a02fa3 	lsr	r2, r3, #31
 c001de8:	e0823003 	add	r3, r2, r3
 c001dec:	e1a030c3 	asr	r3, r3, #1
 c001df0:	e28326c3 	add	r2, r3, #204472320	; 0xc300000
 c001df4:	e2822c96 	add	r2, r2, #38400	; 0x9600
 c001df8:	e15b31f4 	ldrsh	r3, [fp, #-20]	; 0xffffffec
 c001dfc:	e2830007 	add	r0, r3, #7
 c001e00:	e3530000 	cmp	r3, #0
 c001e04:	b1a03000 	movlt	r3, r0
 c001e08:	e1a031c3 	asr	r3, r3, #3
 c001e0c:	e1a03803 	lsl	r3, r3, #16
 c001e10:	e1a03823 	lsr	r3, r3, #16
 c001e14:	e1a03803 	lsl	r3, r3, #16
 c001e18:	e1a03843 	asr	r3, r3, #16
 c001e1c:	e1a03103 	lsl	r3, r3, #2
 c001e20:	e0823003 	add	r3, r2, r3
 c001e24:	e5930000 	ldr	r0, [r3]
 c001e28:	e15b21f4 	ldrsh	r2, [fp, #-20]	; 0xffffffec
 c001e2c:	e1a03fc2 	asr	r3, r2, #31
 c001e30:	e1a03ea3 	lsr	r3, r3, #29
 c001e34:	e0822003 	add	r2, r2, r3
 c001e38:	e2022007 	and	r2, r2, #7
 c001e3c:	e0633002 	rsb	r3, r3, r2
 c001e40:	e1a03803 	lsl	r3, r3, #16
 c001e44:	e1a03823 	lsr	r3, r3, #16
 c001e48:	e1a03803 	lsl	r3, r3, #16
 c001e4c:	e1a03843 	asr	r3, r3, #16
 c001e50:	e1a03103 	lsl	r3, r3, #2
 c001e54:	e3a0220f 	mov	r2, #-268435456	; 0xf0000000
 c001e58:	e1a03332 	lsr	r3, r2, r3
 c001e5c:	e1e03003 	mvn	r3, r3
 c001e60:	e0000003 	and	r0, r0, r3
 c001e64:	e5dbc004 	ldrb	ip, [fp, #4]
 c001e68:	e15b21f4 	ldrsh	r2, [fp, #-20]	; 0xffffffec
 c001e6c:	e1a03fc2 	asr	r3, r2, #31
 c001e70:	e1a03ea3 	lsr	r3, r3, #29
 c001e74:	e0822003 	add	r2, r2, r3
 c001e78:	e2022007 	and	r2, r2, #7
 c001e7c:	e0633002 	rsb	r3, r3, r2
 c001e80:	e1a03803 	lsl	r3, r3, #16
 c001e84:	e1a03823 	lsr	r3, r3, #16
 c001e88:	e1a03803 	lsl	r3, r3, #16
 c001e8c:	e1a03843 	asr	r3, r3, #16
 c001e90:	e2633007 	rsb	r3, r3, #7
 c001e94:	e1a03103 	lsl	r3, r3, #2
 c001e98:	e1a0331c 	lsl	r3, ip, r3
 c001e9c:	e1803003 	orr	r3, r0, r3
 c001ea0:	e5813000 	str	r3, [r1]
			| (ucColor << 4) | ucColor;

	i = k = l = m = 0;
	if ((usRight - usLeft) <= 8) {
		for (i = usTop; i <= usBottom; i++) {
			for (m = usLeft; m <= usRight; m++) {
 c001ea4:	e15b31b4 	ldrh	r3, [fp, #-20]	; 0xffffffec
 c001ea8:	e2833001 	add	r3, r3, #1
 c001eac:	e14b31b4 	strh	r3, [fp, #-20]	; 0xffffffec
 c001eb0:	e15b21f4 	ldrsh	r2, [fp, #-20]	; 0xffffffec
 c001eb4:	e15b32f2 	ldrsh	r3, [fp, #-34]	; 0xffffffde
 c001eb8:	e1520003 	cmp	r2, r3
 c001ebc:	daffffad 	ble	c001d78 <LcdClrRect+0xc8>
			| (ucColor << 16) | (ucColor << 12) | (ucColor << 8)
			| (ucColor << 4) | ucColor;

	i = k = l = m = 0;
	if ((usRight - usLeft) <= 8) {
		for (i = usTop; i <= usBottom; i++) {
 c001ec0:	e15b30be 	ldrh	r3, [fp, #-14]
 c001ec4:	e2833001 	add	r3, r3, #1
 c001ec8:	e14b30be 	strh	r3, [fp, #-14]
 c001ecc:	e15b20fe 	ldrsh	r2, [fp, #-14]
 c001ed0:	e15b32f4 	ldrsh	r3, [fp, #-36]	; 0xffffffdc
 c001ed4:	e1520003 	cmp	r2, r3
 c001ed8:	daffffa3 	ble	c001d6c <LcdClrRect+0xbc>
			for (m = usLeft; m <= usRight; m++) {
				LCD_PutPixel(m, i, ucColor);
			}
		}
		return;
 c001edc:	ea000104 	b	c0022f4 <LcdClrRect+0x644>
	}

	/* check borderline */
	if (0 == (usLeft % 8))
 c001ee0:	e15b31be 	ldrh	r3, [fp, #-30]	; 0xffffffe2
 c001ee4:	e2033007 	and	r3, r3, #7
 c001ee8:	e1a03803 	lsl	r3, r3, #16
 c001eec:	e1a03823 	lsr	r3, r3, #16
 c001ef0:	e3530000 	cmp	r3, #0
 c001ef4:	1a000002 	bne	c001f04 <LcdClrRect+0x254>
		k = usLeft;
 c001ef8:	e15b31be 	ldrh	r3, [fp, #-30]	; 0xffffffe2
 c001efc:	e14b31b0 	strh	r3, [fp, #-16]
 c001f00:	ea00000f 	b	c001f44 <LcdClrRect+0x294>
	else {
		k = (usLeft / 8) * 8 + 8;
 c001f04:	e15b31fe 	ldrsh	r3, [fp, #-30]	; 0xffffffe2
 c001f08:	e2832007 	add	r2, r3, #7
 c001f0c:	e3530000 	cmp	r3, #0
 c001f10:	b1a03002 	movlt	r3, r2
 c001f14:	e1a031c3 	asr	r3, r3, #3
 c001f18:	e1a03803 	lsl	r3, r3, #16
 c001f1c:	e1a03823 	lsr	r3, r3, #16
 c001f20:	e1a03803 	lsl	r3, r3, #16
 c001f24:	e1a03843 	asr	r3, r3, #16
 c001f28:	e2833001 	add	r3, r3, #1
 c001f2c:	e1a03803 	lsl	r3, r3, #16
 c001f30:	e1a03823 	lsr	r3, r3, #16
 c001f34:	e1a03183 	lsl	r3, r3, #3
 c001f38:	e1a03803 	lsl	r3, r3, #16
 c001f3c:	e1a03823 	lsr	r3, r3, #16
 c001f40:	e14b31b0 	strh	r3, [fp, #-16]
	}
	if (0 == (usRight % 8))
 c001f44:	e15b32b2 	ldrh	r3, [fp, #-34]	; 0xffffffde
 c001f48:	e2033007 	and	r3, r3, #7
 c001f4c:	e1a03803 	lsl	r3, r3, #16
 c001f50:	e1a03823 	lsr	r3, r3, #16
 c001f54:	e3530000 	cmp	r3, #0
 c001f58:	1a000002 	bne	c001f68 <LcdClrRect+0x2b8>
		l = usRight;
 c001f5c:	e15b32b2 	ldrh	r3, [fp, #-34]	; 0xffffffde
 c001f60:	e14b31b2 	strh	r3, [fp, #-18]	; 0xffffffee
 c001f64:	ea00000c 	b	c001f9c <LcdClrRect+0x2ec>
	else {
		l = (usRight / 8) * 8;
 c001f68:	e15b32f2 	ldrsh	r3, [fp, #-34]	; 0xffffffde
 c001f6c:	e2832007 	add	r2, r3, #7
 c001f70:	e3530000 	cmp	r3, #0
 c001f74:	b1a03002 	movlt	r3, r2
 c001f78:	e1a031c3 	asr	r3, r3, #3
 c001f7c:	e1a03803 	lsl	r3, r3, #16
 c001f80:	e1a03823 	lsr	r3, r3, #16
 c001f84:	e1a03803 	lsl	r3, r3, #16
 c001f88:	e1a03823 	lsr	r3, r3, #16
 c001f8c:	e1a03183 	lsl	r3, r3, #3
 c001f90:	e1a03803 	lsl	r3, r3, #16
 c001f94:	e1a03823 	lsr	r3, r3, #16
 c001f98:	e14b31b2 	strh	r3, [fp, #-18]	; 0xffffffee
	}

	for (i = usTop; i <= usBottom; i++) {
 c001f9c:	e15b32b0 	ldrh	r3, [fp, #-32]	; 0xffffffe0
 c001fa0:	e14b30be 	strh	r3, [fp, #-14]
 c001fa4:	ea0000ce 	b	c0022e4 <LcdClrRect+0x634>
		for (m = usLeft; m <= (k - 1); m++) {
 c001fa8:	e15b31be 	ldrh	r3, [fp, #-30]	; 0xffffffe2
 c001fac:	e14b31b4 	strh	r3, [fp, #-20]	; 0xffffffec
 c001fb0:	ea00004d 	b	c0020ec <LcdClrRect+0x43c>
			LCD_PutPixel(m, i, ucColor);
 c001fb4:	e15b20fe 	ldrsh	r2, [fp, #-14]
 c001fb8:	e1a03002 	mov	r3, r2
 c001fbc:	e1a03103 	lsl	r3, r3, #2
 c001fc0:	e0833002 	add	r3, r3, r2
 c001fc4:	e1a03303 	lsl	r3, r3, #6
 c001fc8:	e1a02fa3 	lsr	r2, r3, #31
 c001fcc:	e0823003 	add	r3, r2, r3
 c001fd0:	e1a030c3 	asr	r3, r3, #1
 c001fd4:	e28326c3 	add	r2, r3, #204472320	; 0xc300000
 c001fd8:	e2822c96 	add	r2, r2, #38400	; 0x9600
 c001fdc:	e15b31f4 	ldrsh	r3, [fp, #-20]	; 0xffffffec
 c001fe0:	e2831007 	add	r1, r3, #7
 c001fe4:	e3530000 	cmp	r3, #0
 c001fe8:	b1a03001 	movlt	r3, r1
 c001fec:	e1a031c3 	asr	r3, r3, #3
 c001ff0:	e1a03803 	lsl	r3, r3, #16
 c001ff4:	e1a03823 	lsr	r3, r3, #16
 c001ff8:	e1a03803 	lsl	r3, r3, #16
 c001ffc:	e1a03843 	asr	r3, r3, #16
 c002000:	e1a03103 	lsl	r3, r3, #2
 c002004:	e0823003 	add	r3, r2, r3
 c002008:	e1a01003 	mov	r1, r3
 c00200c:	e15b20fe 	ldrsh	r2, [fp, #-14]
 c002010:	e1a03002 	mov	r3, r2
 c002014:	e1a03103 	lsl	r3, r3, #2
 c002018:	e0833002 	add	r3, r3, r2
 c00201c:	e1a03303 	lsl	r3, r3, #6
 c002020:	e1a02fa3 	lsr	r2, r3, #31
 c002024:	e0823003 	add	r3, r2, r3
 c002028:	e1a030c3 	asr	r3, r3, #1
 c00202c:	e28326c3 	add	r2, r3, #204472320	; 0xc300000
 c002030:	e2822c96 	add	r2, r2, #38400	; 0x9600
 c002034:	e15b31f4 	ldrsh	r3, [fp, #-20]	; 0xffffffec
 c002038:	e2830007 	add	r0, r3, #7
 c00203c:	e3530000 	cmp	r3, #0
 c002040:	b1a03000 	movlt	r3, r0
 c002044:	e1a031c3 	asr	r3, r3, #3
 c002048:	e1a03803 	lsl	r3, r3, #16
 c00204c:	e1a03823 	lsr	r3, r3, #16
 c002050:	e1a03803 	lsl	r3, r3, #16
 c002054:	e1a03843 	asr	r3, r3, #16
 c002058:	e1a03103 	lsl	r3, r3, #2
 c00205c:	e0823003 	add	r3, r2, r3
 c002060:	e5930000 	ldr	r0, [r3]
 c002064:	e15b21f4 	ldrsh	r2, [fp, #-20]	; 0xffffffec
 c002068:	e1a03fc2 	asr	r3, r2, #31
 c00206c:	e1a03ea3 	lsr	r3, r3, #29
 c002070:	e0822003 	add	r2, r2, r3
 c002074:	e2022007 	and	r2, r2, #7
 c002078:	e0633002 	rsb	r3, r3, r2
 c00207c:	e1a03803 	lsl	r3, r3, #16
 c002080:	e1a03823 	lsr	r3, r3, #16
 c002084:	e1a03803 	lsl	r3, r3, #16
 c002088:	e1a03843 	asr	r3, r3, #16
 c00208c:	e1a03103 	lsl	r3, r3, #2
 c002090:	e3a0220f 	mov	r2, #-268435456	; 0xf0000000
 c002094:	e1a03332 	lsr	r3, r2, r3
 c002098:	e1e03003 	mvn	r3, r3
 c00209c:	e0000003 	and	r0, r0, r3
 c0020a0:	e5dbc004 	ldrb	ip, [fp, #4]
 c0020a4:	e15b21f4 	ldrsh	r2, [fp, #-20]	; 0xffffffec
 c0020a8:	e1a03fc2 	asr	r3, r2, #31
 c0020ac:	e1a03ea3 	lsr	r3, r3, #29
 c0020b0:	e0822003 	add	r2, r2, r3
 c0020b4:	e2022007 	and	r2, r2, #7
 c0020b8:	e0633002 	rsb	r3, r3, r2
 c0020bc:	e1a03803 	lsl	r3, r3, #16
 c0020c0:	e1a03823 	lsr	r3, r3, #16
 c0020c4:	e1a03803 	lsl	r3, r3, #16
 c0020c8:	e1a03843 	asr	r3, r3, #16
 c0020cc:	e2633007 	rsb	r3, r3, #7
 c0020d0:	e1a03103 	lsl	r3, r3, #2
 c0020d4:	e1a0331c 	lsl	r3, ip, r3
 c0020d8:	e1803003 	orr	r3, r0, r3
 c0020dc:	e5813000 	str	r3, [r1]
	else {
		l = (usRight / 8) * 8;
	}

	for (i = usTop; i <= usBottom; i++) {
		for (m = usLeft; m <= (k - 1); m++) {
 c0020e0:	e15b31b4 	ldrh	r3, [fp, #-20]	; 0xffffffec
 c0020e4:	e2833001 	add	r3, r3, #1
 c0020e8:	e14b31b4 	strh	r3, [fp, #-20]	; 0xffffffec
 c0020ec:	e15b21f4 	ldrsh	r2, [fp, #-20]	; 0xffffffec
 c0020f0:	e15b31f0 	ldrsh	r3, [fp, #-16]
 c0020f4:	e2433001 	sub	r3, r3, #1
 c0020f8:	e1520003 	cmp	r2, r3
 c0020fc:	daffffac 	ble	c001fb4 <LcdClrRect+0x304>
			LCD_PutPixel(m, i, ucColor);
		}
		for (m = k; m < l; m += 8) {
 c002100:	e15b31b0 	ldrh	r3, [fp, #-16]
 c002104:	e14b31b4 	strh	r3, [fp, #-20]	; 0xffffffec
 c002108:	ea000019 	b	c002174 <LcdClrRect+0x4c4>
			(*(INT32U*) (LCD_VIRTUAL_BUFFER + i * SCR_XSIZE / 2 + m / 2)) =
 c00210c:	e15b20fe 	ldrsh	r2, [fp, #-14]
 c002110:	e1a03002 	mov	r3, r2
 c002114:	e1a03103 	lsl	r3, r3, #2
 c002118:	e0833002 	add	r3, r3, r2
 c00211c:	e1a03303 	lsl	r3, r3, #6
 c002120:	e1a02fa3 	lsr	r2, r3, #31
 c002124:	e0823003 	add	r3, r2, r3
 c002128:	e1a030c3 	asr	r3, r3, #1
 c00212c:	e28336c3 	add	r3, r3, #204472320	; 0xc300000
 c002130:	e2833c96 	add	r3, r3, #38400	; 0x9600
 c002134:	e15b21f4 	ldrsh	r2, [fp, #-20]	; 0xffffffec
 c002138:	e1a01fa2 	lsr	r1, r2, #31
 c00213c:	e0812002 	add	r2, r1, r2
 c002140:	e1a020c2 	asr	r2, r2, #1
 c002144:	e1a02802 	lsl	r2, r2, #16
 c002148:	e1a02822 	lsr	r2, r2, #16
 c00214c:	e1a02802 	lsl	r2, r2, #16
 c002150:	e1a02842 	asr	r2, r2, #16
 c002154:	e0833002 	add	r3, r3, r2
 c002158:	e51b2018 	ldr	r2, [fp, #-24]	; 0xffffffe8
 c00215c:	e5832000 	str	r2, [r3]

	for (i = usTop; i <= usBottom; i++) {
		for (m = usLeft; m <= (k - 1); m++) {
			LCD_PutPixel(m, i, ucColor);
		}
		for (m = k; m < l; m += 8) {
 c002160:	e15b31b4 	ldrh	r3, [fp, #-20]	; 0xffffffec
 c002164:	e2833008 	add	r3, r3, #8
 c002168:	e1a03803 	lsl	r3, r3, #16
 c00216c:	e1a03823 	lsr	r3, r3, #16
 c002170:	e14b31b4 	strh	r3, [fp, #-20]	; 0xffffffec
 c002174:	e15b21f4 	ldrsh	r2, [fp, #-20]	; 0xffffffec
 c002178:	e15b31f2 	ldrsh	r3, [fp, #-18]	; 0xffffffee
 c00217c:	e1520003 	cmp	r2, r3
 c002180:	baffffe1 	blt	c00210c <LcdClrRect+0x45c>
			(*(INT32U*) (LCD_VIRTUAL_BUFFER + i * SCR_XSIZE / 2 + m / 2)) =
					ulColor;
		}
		for (m = l; m <= usRight; m++) {
 c002184:	e15b31b2 	ldrh	r3, [fp, #-18]	; 0xffffffee
 c002188:	e14b31b4 	strh	r3, [fp, #-20]	; 0xffffffec
 c00218c:	ea00004d 	b	c0022c8 <LcdClrRect+0x618>
			LCD_PutPixel(m, i, ucColor);
 c002190:	e15b20fe 	ldrsh	r2, [fp, #-14]
 c002194:	e1a03002 	mov	r3, r2
 c002198:	e1a03103 	lsl	r3, r3, #2
 c00219c:	e0833002 	add	r3, r3, r2
 c0021a0:	e1a03303 	lsl	r3, r3, #6
 c0021a4:	e1a02fa3 	lsr	r2, r3, #31
 c0021a8:	e0823003 	add	r3, r2, r3
 c0021ac:	e1a030c3 	asr	r3, r3, #1
 c0021b0:	e28326c3 	add	r2, r3, #204472320	; 0xc300000
 c0021b4:	e2822c96 	add	r2, r2, #38400	; 0x9600
 c0021b8:	e15b31f4 	ldrsh	r3, [fp, #-20]	; 0xffffffec
 c0021bc:	e2831007 	add	r1, r3, #7
 c0021c0:	e3530000 	cmp	r3, #0
 c0021c4:	b1a03001 	movlt	r3, r1
 c0021c8:	e1a031c3 	asr	r3, r3, #3
 c0021cc:	e1a03803 	lsl	r3, r3, #16
 c0021d0:	e1a03823 	lsr	r3, r3, #16
 c0021d4:	e1a03803 	lsl	r3, r3, #16
 c0021d8:	e1a03843 	asr	r3, r3, #16
 c0021dc:	e1a03103 	lsl	r3, r3, #2
 c0021e0:	e0823003 	add	r3, r2, r3
 c0021e4:	e1a01003 	mov	r1, r3
 c0021e8:	e15b20fe 	ldrsh	r2, [fp, #-14]
 c0021ec:	e1a03002 	mov	r3, r2
 c0021f0:	e1a03103 	lsl	r3, r3, #2
 c0021f4:	e0833002 	add	r3, r3, r2
 c0021f8:	e1a03303 	lsl	r3, r3, #6
 c0021fc:	e1a02fa3 	lsr	r2, r3, #31
 c002200:	e0823003 	add	r3, r2, r3
 c002204:	e1a030c3 	asr	r3, r3, #1
 c002208:	e28326c3 	add	r2, r3, #204472320	; 0xc300000
 c00220c:	e2822c96 	add	r2, r2, #38400	; 0x9600
 c002210:	e15b31f4 	ldrsh	r3, [fp, #-20]	; 0xffffffec
 c002214:	e2830007 	add	r0, r3, #7
 c002218:	e3530000 	cmp	r3, #0
 c00221c:	b1a03000 	movlt	r3, r0
 c002220:	e1a031c3 	asr	r3, r3, #3
 c002224:	e1a03803 	lsl	r3, r3, #16
 c002228:	e1a03823 	lsr	r3, r3, #16
 c00222c:	e1a03803 	lsl	r3, r3, #16
 c002230:	e1a03843 	asr	r3, r3, #16
 c002234:	e1a03103 	lsl	r3, r3, #2
 c002238:	e0823003 	add	r3, r2, r3
 c00223c:	e5930000 	ldr	r0, [r3]
 c002240:	e15b21f4 	ldrsh	r2, [fp, #-20]	; 0xffffffec
 c002244:	e1a03fc2 	asr	r3, r2, #31
 c002248:	e1a03ea3 	lsr	r3, r3, #29
 c00224c:	e0822003 	add	r2, r2, r3
 c002250:	e2022007 	and	r2, r2, #7
 c002254:	e0633002 	rsb	r3, r3, r2
 c002258:	e1a03803 	lsl	r3, r3, #16
 c00225c:	e1a03823 	lsr	r3, r3, #16
 c002260:	e1a03803 	lsl	r3, r3, #16
 c002264:	e1a03843 	asr	r3, r3, #16
 c002268:	e1a03103 	lsl	r3, r3, #2
 c00226c:	e3a0220f 	mov	r2, #-268435456	; 0xf0000000
 c002270:	e1a03332 	lsr	r3, r2, r3
 c002274:	e1e03003 	mvn	r3, r3
 c002278:	e0000003 	and	r0, r0, r3
 c00227c:	e5dbc004 	ldrb	ip, [fp, #4]
 c002280:	e15b21f4 	ldrsh	r2, [fp, #-20]	; 0xffffffec
 c002284:	e1a03fc2 	asr	r3, r2, #31
 c002288:	e1a03ea3 	lsr	r3, r3, #29
 c00228c:	e0822003 	add	r2, r2, r3
 c002290:	e2022007 	and	r2, r2, #7
 c002294:	e0633002 	rsb	r3, r3, r2
 c002298:	e1a03803 	lsl	r3, r3, #16
 c00229c:	e1a03823 	lsr	r3, r3, #16
 c0022a0:	e1a03803 	lsl	r3, r3, #16
 c0022a4:	e1a03843 	asr	r3, r3, #16
 c0022a8:	e2633007 	rsb	r3, r3, #7
 c0022ac:	e1a03103 	lsl	r3, r3, #2
 c0022b0:	e1a0331c 	lsl	r3, ip, r3
 c0022b4:	e1803003 	orr	r3, r0, r3
 c0022b8:	e5813000 	str	r3, [r1]
		}
		for (m = k; m < l; m += 8) {
			(*(INT32U*) (LCD_VIRTUAL_BUFFER + i * SCR_XSIZE / 2 + m / 2)) =
					ulColor;
		}
		for (m = l; m <= usRight; m++) {
 c0022bc:	e15b31b4 	ldrh	r3, [fp, #-20]	; 0xffffffec
 c0022c0:	e2833001 	add	r3, r3, #1
 c0022c4:	e14b31b4 	strh	r3, [fp, #-20]	; 0xffffffec
 c0022c8:	e15b21f4 	ldrsh	r2, [fp, #-20]	; 0xffffffec
 c0022cc:	e15b32f2 	ldrsh	r3, [fp, #-34]	; 0xffffffde
 c0022d0:	e1520003 	cmp	r2, r3
 c0022d4:	daffffad 	ble	c002190 <LcdClrRect+0x4e0>
		l = usRight;
	else {
		l = (usRight / 8) * 8;
	}

	for (i = usTop; i <= usBottom; i++) {
 c0022d8:	e15b30be 	ldrh	r3, [fp, #-14]
 c0022dc:	e2833001 	add	r3, r3, #1
 c0022e0:	e14b30be 	strh	r3, [fp, #-14]
 c0022e4:	e15b20fe 	ldrsh	r2, [fp, #-14]
 c0022e8:	e15b32f4 	ldrsh	r3, [fp, #-36]	; 0xffffffdc
 c0022ec:	e1520003 	cmp	r2, r3
 c0022f0:	daffff2c 	ble	c001fa8 <LcdClrRect+0x2f8>
		}
		for (m = l; m <= usRight; m++) {
			LCD_PutPixel(m, i, ucColor);
		}
	}
}
 c0022f4:	e24bd00c 	sub	sp, fp, #12
 c0022f8:	e89d6800 	ldm	sp, {fp, sp, lr}
 c0022fc:	e12fff1e 	bx	lr

0c002300 <Lcd_Draw_Box>:
 * ret:		none
 * modify:
 * comment:
 *********************************************************************************************/
void Lcd_Draw_Box(INT16 usLeft, INT16 usTop, INT16 usRight, INT16 usBottom,
		INT8U ucColor) {
 c002300:	e1a0c00d 	mov	ip, sp
 c002304:	e92dd800 	push	{fp, ip, lr, pc}
 c002308:	e24cb004 	sub	fp, ip, #4
 c00230c:	e24dd010 	sub	sp, sp, #16
 c002310:	e14b00be 	strh	r0, [fp, #-14]
 c002314:	e14b11b0 	strh	r1, [fp, #-16]
 c002318:	e14b21b2 	strh	r2, [fp, #-18]	; 0xffffffee
 c00231c:	e14b31b4 	strh	r3, [fp, #-20]	; 0xffffffec
	Lcd_Draw_HLine(usLeft, usRight, usTop, ucColor, 1);
 c002320:	e15b00fe 	ldrsh	r0, [fp, #-14]
 c002324:	e15b11f2 	ldrsh	r1, [fp, #-18]	; 0xffffffee
 c002328:	e15b21f0 	ldrsh	r2, [fp, #-16]
 c00232c:	e5db3004 	ldrb	r3, [fp, #4]
 c002330:	e3a0c001 	mov	ip, #1
 c002334:	e58dc000 	str	ip, [sp]
 c002338:	eb000294 	bl	c002d90 <Lcd_Draw_HLine>
	Lcd_Draw_HLine(usLeft, usRight, usBottom, ucColor, 1);
 c00233c:	e15b00fe 	ldrsh	r0, [fp, #-14]
 c002340:	e15b11f2 	ldrsh	r1, [fp, #-18]	; 0xffffffee
 c002344:	e15b21f4 	ldrsh	r2, [fp, #-20]	; 0xffffffec
 c002348:	e5db3004 	ldrb	r3, [fp, #4]
 c00234c:	e3a0c001 	mov	ip, #1
 c002350:	e58dc000 	str	ip, [sp]
 c002354:	eb00028d 	bl	c002d90 <Lcd_Draw_HLine>
	Lcd_Draw_VLine(usTop, usBottom, usLeft, ucColor, 1);
 c002358:	e15b01f0 	ldrsh	r0, [fp, #-16]
 c00235c:	e15b11f4 	ldrsh	r1, [fp, #-20]	; 0xffffffec
 c002360:	e15b20fe 	ldrsh	r2, [fp, #-14]
 c002364:	e5db3004 	ldrb	r3, [fp, #4]
 c002368:	e3a0c001 	mov	ip, #1
 c00236c:	e58dc000 	str	ip, [sp]
 c002370:	eb000308 	bl	c002f98 <Lcd_Draw_VLine>
	Lcd_Draw_VLine(usTop, usBottom, usRight, ucColor, 1);
 c002374:	e15b01f0 	ldrsh	r0, [fp, #-16]
 c002378:	e15b11f4 	ldrsh	r1, [fp, #-20]	; 0xffffffec
 c00237c:	e15b21f2 	ldrsh	r2, [fp, #-18]	; 0xffffffee
 c002380:	e5db3004 	ldrb	r3, [fp, #4]
 c002384:	e3a0c001 	mov	ip, #1
 c002388:	e58dc000 	str	ip, [sp]
 c00238c:	eb000301 	bl	c002f98 <Lcd_Draw_VLine>
}
 c002390:	e24bd00c 	sub	sp, fp, #12
 c002394:	e89d6800 	ldm	sp, {fp, sp, lr}
 c002398:	e12fff1e 	bx	lr

0c00239c <Lcd_Draw_Box_Pista>:
 * ret:		none
 * modify:
 * comment:
 *********************************************************************************************/
void Lcd_Draw_Box_Pista(INT16 usLeft, INT16 usTop, INT16 usRight,
		INT16 usBottom, INT8U ucColor) {
 c00239c:	e1a0c00d 	mov	ip, sp
 c0023a0:	e92dd800 	push	{fp, ip, lr, pc}
 c0023a4:	e24cb004 	sub	fp, ip, #4
 c0023a8:	e24dd010 	sub	sp, sp, #16
 c0023ac:	e14b00be 	strh	r0, [fp, #-14]
 c0023b0:	e14b11b0 	strh	r1, [fp, #-16]
 c0023b4:	e14b21b2 	strh	r2, [fp, #-18]	; 0xffffffee
 c0023b8:	e14b31b4 	strh	r3, [fp, #-20]	; 0xffffffec
	Lcd_Draw_HLine(usLeft, usRight, usTop, ucColor, 3);
 c0023bc:	e15b00fe 	ldrsh	r0, [fp, #-14]
 c0023c0:	e15b11f2 	ldrsh	r1, [fp, #-18]	; 0xffffffee
 c0023c4:	e15b21f0 	ldrsh	r2, [fp, #-16]
 c0023c8:	e5db3004 	ldrb	r3, [fp, #4]
 c0023cc:	e3a0c003 	mov	ip, #3
 c0023d0:	e58dc000 	str	ip, [sp]
 c0023d4:	eb00026d 	bl	c002d90 <Lcd_Draw_HLine>
	Lcd_Draw_HLine(usLeft, usRight, usBottom, ucColor, 3);
 c0023d8:	e15b00fe 	ldrsh	r0, [fp, #-14]
 c0023dc:	e15b11f2 	ldrsh	r1, [fp, #-18]	; 0xffffffee
 c0023e0:	e15b21f4 	ldrsh	r2, [fp, #-20]	; 0xffffffec
 c0023e4:	e5db3004 	ldrb	r3, [fp, #4]
 c0023e8:	e3a0c003 	mov	ip, #3
 c0023ec:	e58dc000 	str	ip, [sp]
 c0023f0:	eb000266 	bl	c002d90 <Lcd_Draw_HLine>
	Lcd_Draw_VLine(usTop, usBottom, usLeft, ucColor, 3);
 c0023f4:	e15b01f0 	ldrsh	r0, [fp, #-16]
 c0023f8:	e15b11f4 	ldrsh	r1, [fp, #-20]	; 0xffffffec
 c0023fc:	e15b20fe 	ldrsh	r2, [fp, #-14]
 c002400:	e5db3004 	ldrb	r3, [fp, #4]
 c002404:	e3a0c003 	mov	ip, #3
 c002408:	e58dc000 	str	ip, [sp]
 c00240c:	eb0002e1 	bl	c002f98 <Lcd_Draw_VLine>
	Lcd_Draw_VLine(usTop, usBottom, usRight, ucColor, 3);
 c002410:	e15b01f0 	ldrsh	r0, [fp, #-16]
 c002414:	e15b11f4 	ldrsh	r1, [fp, #-20]	; 0xffffffec
 c002418:	e15b21f2 	ldrsh	r2, [fp, #-18]	; 0xffffffee
 c00241c:	e5db3004 	ldrb	r3, [fp, #4]
 c002420:	e3a0c003 	mov	ip, #3
 c002424:	e58dc000 	str	ip, [sp]
 c002428:	eb0002da 	bl	c002f98 <Lcd_Draw_VLine>
}
 c00242c:	e24bd00c 	sub	sp, fp, #12
 c002430:	e89d6800 	ldm	sp, {fp, sp, lr}
 c002434:	e12fff1e 	bx	lr

0c002438 <Lcd_Draw_Line>:
 * ret:		none
 * modify:
 * comment:
 *********************************************************************************************/
void Lcd_Draw_Line(INT16 usX0, INT16 usY0, INT16 usX1, INT16 usY1,
		INT8U ucColor, INT16U usWidth) {
 c002438:	e1a0c00d 	mov	ip, sp
 c00243c:	e92dd800 	push	{fp, ip, lr, pc}
 c002440:	e24cb004 	sub	fp, ip, #4
 c002444:	e24dd028 	sub	sp, sp, #40	; 0x28
 c002448:	e14b02b6 	strh	r0, [fp, #-38]	; 0xffffffda
 c00244c:	e14b12b8 	strh	r1, [fp, #-40]	; 0xffffffd8
 c002450:	e14b22ba 	strh	r2, [fp, #-42]	; 0xffffffd6
 c002454:	e14b32bc 	strh	r3, [fp, #-44]	; 0xffffffd4
	INT16 y_sign;
	INT16 x_sign;
	INT16 decision;
	INT16 wCurx, wCury, wNextx, wNexty, wpy, wpx;

	if (usY0 == usY1) {
 c002458:	e15b22f8 	ldrsh	r2, [fp, #-40]	; 0xffffffd8
 c00245c:	e15b32fc 	ldrsh	r3, [fp, #-44]	; 0xffffffd4
 c002460:	e1520003 	cmp	r2, r3
 c002464:	1a000007 	bne	c002488 <Lcd_Draw_Line+0x50>
		Lcd_Draw_HLine(usX0, usX1, usY0, ucColor, usWidth);
 c002468:	e15b02f6 	ldrsh	r0, [fp, #-38]	; 0xffffffda
 c00246c:	e15b12fa 	ldrsh	r1, [fp, #-42]	; 0xffffffd6
 c002470:	e15b22f8 	ldrsh	r2, [fp, #-40]	; 0xffffffd8
 c002474:	e5db3004 	ldrb	r3, [fp, #4]
 c002478:	e1dbc0b8 	ldrh	ip, [fp, #8]
 c00247c:	e58dc000 	str	ip, [sp]
 c002480:	eb000242 	bl	c002d90 <Lcd_Draw_HLine>
		return;
 c002484:	ea00023e 	b	c002d84 <Lcd_Draw_Line+0x94c>
	}
	if (usX0 == usX1) {
 c002488:	e15b22f6 	ldrsh	r2, [fp, #-38]	; 0xffffffda
 c00248c:	e15b32fa 	ldrsh	r3, [fp, #-42]	; 0xffffffd6
 c002490:	e1520003 	cmp	r2, r3
 c002494:	1a000007 	bne	c0024b8 <Lcd_Draw_Line+0x80>
		Lcd_Draw_VLine(usY0, usY1, usX0, ucColor, usWidth);
 c002498:	e15b02f8 	ldrsh	r0, [fp, #-40]	; 0xffffffd8
 c00249c:	e15b12fc 	ldrsh	r1, [fp, #-44]	; 0xffffffd4
 c0024a0:	e15b22f6 	ldrsh	r2, [fp, #-38]	; 0xffffffda
 c0024a4:	e5db3004 	ldrb	r3, [fp, #4]
 c0024a8:	e1dbc0b8 	ldrh	ip, [fp, #8]
 c0024ac:	e58dc000 	str	ip, [sp]
 c0024b0:	eb0002b8 	bl	c002f98 <Lcd_Draw_VLine>
		return;
 c0024b4:	ea000232 	b	c002d84 <Lcd_Draw_Line+0x94c>
	}
	usDx = abs(usX0 - usX1);
 c0024b8:	e15b22f6 	ldrsh	r2, [fp, #-38]	; 0xffffffda
 c0024bc:	e15b32fa 	ldrsh	r3, [fp, #-42]	; 0xffffffd6
 c0024c0:	e0633002 	rsb	r3, r3, r2
 c0024c4:	e3530000 	cmp	r3, #0
 c0024c8:	b2633000 	rsblt	r3, r3, #0
 c0024cc:	e14b31bc 	strh	r3, [fp, #-28]	; 0xffffffe4
	usDy = abs(usY0 - usY1);
 c0024d0:	e15b22f8 	ldrsh	r2, [fp, #-40]	; 0xffffffd8
 c0024d4:	e15b32fc 	ldrsh	r3, [fp, #-44]	; 0xffffffd4
 c0024d8:	e0633002 	rsb	r3, r3, r2
 c0024dc:	e3530000 	cmp	r3, #0
 c0024e0:	b2633000 	rsblt	r3, r3, #0
 c0024e4:	e14b31be 	strh	r3, [fp, #-30]	; 0xffffffe2
	if (((usDx >= usDy && (usX0 > usX1)) || ((usDy > usDx) && (usY0 > usY1)))) {
 c0024e8:	e15b21fc 	ldrsh	r2, [fp, #-28]	; 0xffffffe4
 c0024ec:	e15b31fe 	ldrsh	r3, [fp, #-30]	; 0xffffffe2
 c0024f0:	e1520003 	cmp	r2, r3
 c0024f4:	ba000003 	blt	c002508 <Lcd_Draw_Line+0xd0>
 c0024f8:	e15b22f6 	ldrsh	r2, [fp, #-38]	; 0xffffffda
 c0024fc:	e15b32fa 	ldrsh	r3, [fp, #-42]	; 0xffffffd6
 c002500:	e1520003 	cmp	r2, r3
 c002504:	ca000007 	bgt	c002528 <Lcd_Draw_Line+0xf0>
 c002508:	e15b21fe 	ldrsh	r2, [fp, #-30]	; 0xffffffe2
 c00250c:	e15b31fc 	ldrsh	r3, [fp, #-28]	; 0xffffffe4
 c002510:	e1520003 	cmp	r2, r3
 c002514:	da00001b 	ble	c002588 <Lcd_Draw_Line+0x150>
 c002518:	e15b22f8 	ldrsh	r2, [fp, #-40]	; 0xffffffd8
 c00251c:	e15b32fc 	ldrsh	r3, [fp, #-44]	; 0xffffffd4
 c002520:	e1520003 	cmp	r2, r3
 c002524:	da000017 	ble	c002588 <Lcd_Draw_Line+0x150>
		GUISWAP(usX1, usX0);
 c002528:	e15b22ba 	ldrh	r2, [fp, #-42]	; 0xffffffd6
 c00252c:	e15b32b6 	ldrh	r3, [fp, #-38]	; 0xffffffda
 c002530:	e0223003 	eor	r3, r2, r3
 c002534:	e14b32ba 	strh	r3, [fp, #-42]	; 0xffffffd6
 c002538:	e15b22b6 	ldrh	r2, [fp, #-38]	; 0xffffffda
 c00253c:	e15b32ba 	ldrh	r3, [fp, #-42]	; 0xffffffd6
 c002540:	e0223003 	eor	r3, r2, r3
 c002544:	e14b32b6 	strh	r3, [fp, #-38]	; 0xffffffda
 c002548:	e15b22ba 	ldrh	r2, [fp, #-42]	; 0xffffffd6
 c00254c:	e15b32b6 	ldrh	r3, [fp, #-38]	; 0xffffffda
 c002550:	e0223003 	eor	r3, r2, r3
 c002554:	e14b32ba 	strh	r3, [fp, #-42]	; 0xffffffd6
		GUISWAP(usY1, usY0);
 c002558:	e15b22bc 	ldrh	r2, [fp, #-44]	; 0xffffffd4
 c00255c:	e15b32b8 	ldrh	r3, [fp, #-40]	; 0xffffffd8
 c002560:	e0223003 	eor	r3, r2, r3
 c002564:	e14b32bc 	strh	r3, [fp, #-44]	; 0xffffffd4
 c002568:	e15b22b8 	ldrh	r2, [fp, #-40]	; 0xffffffd8
 c00256c:	e15b32bc 	ldrh	r3, [fp, #-44]	; 0xffffffd4
 c002570:	e0223003 	eor	r3, r2, r3
 c002574:	e14b32b8 	strh	r3, [fp, #-40]	; 0xffffffd8
 c002578:	e15b22bc 	ldrh	r2, [fp, #-44]	; 0xffffffd4
 c00257c:	e15b32b8 	ldrh	r3, [fp, #-40]	; 0xffffffd8
 c002580:	e0223003 	eor	r3, r2, r3
 c002584:	e14b32bc 	strh	r3, [fp, #-44]	; 0xffffffd4
	}
	y_sign = (usY1 - usY0) / usDy;
 c002588:	e15b22fc 	ldrsh	r2, [fp, #-44]	; 0xffffffd4
 c00258c:	e15b32f8 	ldrsh	r3, [fp, #-40]	; 0xffffffd8
 c002590:	e0632002 	rsb	r2, r3, r2
 c002594:	e15b31fe 	ldrsh	r3, [fp, #-30]	; 0xffffffe2
 c002598:	e1a00002 	mov	r0, r2
 c00259c:	e1a01003 	mov	r1, r3
 c0025a0:	eb000f67 	bl	c006344 <__aeabi_idiv>
 c0025a4:	e1a03000 	mov	r3, r0
 c0025a8:	e14b32b0 	strh	r3, [fp, #-32]	; 0xffffffe0
	x_sign = (usX1 - usX0) / usDx;
 c0025ac:	e15b22fa 	ldrsh	r2, [fp, #-42]	; 0xffffffd6
 c0025b0:	e15b32f6 	ldrsh	r3, [fp, #-38]	; 0xffffffda
 c0025b4:	e0632002 	rsb	r2, r3, r2
 c0025b8:	e15b31fc 	ldrsh	r3, [fp, #-28]	; 0xffffffe4
 c0025bc:	e1a00002 	mov	r0, r2
 c0025c0:	e1a01003 	mov	r1, r3
 c0025c4:	eb000f5e 	bl	c006344 <__aeabi_idiv>
 c0025c8:	e1a03000 	mov	r3, r0
 c0025cc:	e14b32b2 	strh	r3, [fp, #-34]	; 0xffffffde

	if (usDx >= usDy) {
 c0025d0:	e15b21fc 	ldrsh	r2, [fp, #-28]	; 0xffffffe4
 c0025d4:	e15b31fe 	ldrsh	r3, [fp, #-30]	; 0xffffffe2
 c0025d8:	e1520003 	cmp	r2, r3
 c0025dc:	ba0000f4 	blt	c0029b4 <Lcd_Draw_Line+0x57c>
		for (wCurx = usX0, wCury = usY0, wNextx = usX1, wNexty = usY1, decision =
 c0025e0:	e15b32b6 	ldrh	r3, [fp, #-38]	; 0xffffffda
 c0025e4:	e14b31b0 	strh	r3, [fp, #-16]
 c0025e8:	e15b32b8 	ldrh	r3, [fp, #-40]	; 0xffffffd8
 c0025ec:	e14b31b2 	strh	r3, [fp, #-18]	; 0xffffffee
 c0025f0:	e15b32ba 	ldrh	r3, [fp, #-42]	; 0xffffffd6
 c0025f4:	e14b31b4 	strh	r3, [fp, #-20]	; 0xffffffec
 c0025f8:	e15b32bc 	ldrh	r3, [fp, #-44]	; 0xffffffd4
 c0025fc:	e14b31b6 	strh	r3, [fp, #-22]	; 0xffffffea
 c002600:	e15b31fc 	ldrsh	r3, [fp, #-28]	; 0xffffffe4
 c002604:	e1a030c3 	asr	r3, r3, #1
 c002608:	e14b30be 	strh	r3, [fp, #-14]
 c00260c:	ea0000e3 	b	c0029a0 <Lcd_Draw_Line+0x568>
				(usDx >> 1); wCurx <= wNextx; wCurx++, wNextx--, decision +=
				usDy) {
			if (decision >= usDx) {
 c002610:	e15b20fe 	ldrsh	r2, [fp, #-14]
 c002614:	e15b31fc 	ldrsh	r3, [fp, #-28]	; 0xffffffe4
 c002618:	e1520003 	cmp	r2, r3
 c00261c:	ba000011 	blt	c002668 <Lcd_Draw_Line+0x230>
				decision -= usDx;
 c002620:	e15b20be 	ldrh	r2, [fp, #-14]
 c002624:	e15b31bc 	ldrh	r3, [fp, #-28]	; 0xffffffe4
 c002628:	e0633002 	rsb	r3, r3, r2
 c00262c:	e1a03803 	lsl	r3, r3, #16
 c002630:	e1a03823 	lsr	r3, r3, #16
 c002634:	e14b30be 	strh	r3, [fp, #-14]
				wCury += y_sign;
 c002638:	e15b21b2 	ldrh	r2, [fp, #-18]	; 0xffffffee
 c00263c:	e15b32b0 	ldrh	r3, [fp, #-32]	; 0xffffffe0
 c002640:	e0823003 	add	r3, r2, r3
 c002644:	e1a03803 	lsl	r3, r3, #16
 c002648:	e1a03823 	lsr	r3, r3, #16
 c00264c:	e14b31b2 	strh	r3, [fp, #-18]	; 0xffffffee
				wNexty -= y_sign;
 c002650:	e15b21b6 	ldrh	r2, [fp, #-22]	; 0xffffffea
 c002654:	e15b32b0 	ldrh	r3, [fp, #-32]	; 0xffffffe0
 c002658:	e0633002 	rsb	r3, r3, r2
 c00265c:	e1a03803 	lsl	r3, r3, #16
 c002660:	e1a03823 	lsr	r3, r3, #16
 c002664:	e14b31b6 	strh	r3, [fp, #-22]	; 0xffffffea
			}
			for (wpy = wCury - usWidth / 2; wpy <= wCury + usWidth / 2; wpy++) {
 c002668:	e15b21b2 	ldrh	r2, [fp, #-18]	; 0xffffffee
 c00266c:	e1db30b8 	ldrh	r3, [fp, #8]
 c002670:	e1a030a3 	lsr	r3, r3, #1
 c002674:	e1a03803 	lsl	r3, r3, #16
 c002678:	e1a03823 	lsr	r3, r3, #16
 c00267c:	e0633002 	rsb	r3, r3, r2
 c002680:	e1a03803 	lsl	r3, r3, #16
 c002684:	e1a03823 	lsr	r3, r3, #16
 c002688:	e14b31b8 	strh	r3, [fp, #-24]	; 0xffffffe8
 c00268c:	ea00004d 	b	c0027c8 <Lcd_Draw_Line+0x390>
				LCD_PutPixel(wCurx, wpy, ucColor);
 c002690:	e15b21f8 	ldrsh	r2, [fp, #-24]	; 0xffffffe8
 c002694:	e1a03002 	mov	r3, r2
 c002698:	e1a03103 	lsl	r3, r3, #2
 c00269c:	e0833002 	add	r3, r3, r2
 c0026a0:	e1a03303 	lsl	r3, r3, #6
 c0026a4:	e1a02fa3 	lsr	r2, r3, #31
 c0026a8:	e0823003 	add	r3, r2, r3
 c0026ac:	e1a030c3 	asr	r3, r3, #1
 c0026b0:	e28326c3 	add	r2, r3, #204472320	; 0xc300000
 c0026b4:	e2822c96 	add	r2, r2, #38400	; 0x9600
 c0026b8:	e15b31f0 	ldrsh	r3, [fp, #-16]
 c0026bc:	e2831007 	add	r1, r3, #7
 c0026c0:	e3530000 	cmp	r3, #0
 c0026c4:	b1a03001 	movlt	r3, r1
 c0026c8:	e1a031c3 	asr	r3, r3, #3
 c0026cc:	e1a03803 	lsl	r3, r3, #16
 c0026d0:	e1a03823 	lsr	r3, r3, #16
 c0026d4:	e1a03803 	lsl	r3, r3, #16
 c0026d8:	e1a03843 	asr	r3, r3, #16
 c0026dc:	e1a03103 	lsl	r3, r3, #2
 c0026e0:	e0823003 	add	r3, r2, r3
 c0026e4:	e1a01003 	mov	r1, r3
 c0026e8:	e15b21f8 	ldrsh	r2, [fp, #-24]	; 0xffffffe8
 c0026ec:	e1a03002 	mov	r3, r2
 c0026f0:	e1a03103 	lsl	r3, r3, #2
 c0026f4:	e0833002 	add	r3, r3, r2
 c0026f8:	e1a03303 	lsl	r3, r3, #6
 c0026fc:	e1a02fa3 	lsr	r2, r3, #31
 c002700:	e0823003 	add	r3, r2, r3
 c002704:	e1a030c3 	asr	r3, r3, #1
 c002708:	e28326c3 	add	r2, r3, #204472320	; 0xc300000
 c00270c:	e2822c96 	add	r2, r2, #38400	; 0x9600
 c002710:	e15b31f0 	ldrsh	r3, [fp, #-16]
 c002714:	e2830007 	add	r0, r3, #7
 c002718:	e3530000 	cmp	r3, #0
 c00271c:	b1a03000 	movlt	r3, r0
 c002720:	e1a031c3 	asr	r3, r3, #3
 c002724:	e1a03803 	lsl	r3, r3, #16
 c002728:	e1a03823 	lsr	r3, r3, #16
 c00272c:	e1a03803 	lsl	r3, r3, #16
 c002730:	e1a03843 	asr	r3, r3, #16
 c002734:	e1a03103 	lsl	r3, r3, #2
 c002738:	e0823003 	add	r3, r2, r3
 c00273c:	e5930000 	ldr	r0, [r3]
 c002740:	e15b21f0 	ldrsh	r2, [fp, #-16]
 c002744:	e1a03fc2 	asr	r3, r2, #31
 c002748:	e1a03ea3 	lsr	r3, r3, #29
 c00274c:	e0822003 	add	r2, r2, r3
 c002750:	e2022007 	and	r2, r2, #7
 c002754:	e0633002 	rsb	r3, r3, r2
 c002758:	e1a03803 	lsl	r3, r3, #16
 c00275c:	e1a03823 	lsr	r3, r3, #16
 c002760:	e1a03803 	lsl	r3, r3, #16
 c002764:	e1a03843 	asr	r3, r3, #16
 c002768:	e1a03103 	lsl	r3, r3, #2
 c00276c:	e3a0220f 	mov	r2, #-268435456	; 0xf0000000
 c002770:	e1a03332 	lsr	r3, r2, r3
 c002774:	e1e03003 	mvn	r3, r3
 c002778:	e0000003 	and	r0, r0, r3
 c00277c:	e5dbc004 	ldrb	ip, [fp, #4]
 c002780:	e15b21f0 	ldrsh	r2, [fp, #-16]
 c002784:	e1a03fc2 	asr	r3, r2, #31
 c002788:	e1a03ea3 	lsr	r3, r3, #29
 c00278c:	e0822003 	add	r2, r2, r3
 c002790:	e2022007 	and	r2, r2, #7
 c002794:	e0633002 	rsb	r3, r3, r2
 c002798:	e1a03803 	lsl	r3, r3, #16
 c00279c:	e1a03823 	lsr	r3, r3, #16
 c0027a0:	e1a03803 	lsl	r3, r3, #16
 c0027a4:	e1a03843 	asr	r3, r3, #16
 c0027a8:	e2633007 	rsb	r3, r3, #7
 c0027ac:	e1a03103 	lsl	r3, r3, #2
 c0027b0:	e1a0331c 	lsl	r3, ip, r3
 c0027b4:	e1803003 	orr	r3, r0, r3
 c0027b8:	e5813000 	str	r3, [r1]
			if (decision >= usDx) {
				decision -= usDx;
				wCury += y_sign;
				wNexty -= y_sign;
			}
			for (wpy = wCury - usWidth / 2; wpy <= wCury + usWidth / 2; wpy++) {
 c0027bc:	e15b31b8 	ldrh	r3, [fp, #-24]	; 0xffffffe8
 c0027c0:	e2833001 	add	r3, r3, #1
 c0027c4:	e14b31b8 	strh	r3, [fp, #-24]	; 0xffffffe8
 c0027c8:	e15b21f8 	ldrsh	r2, [fp, #-24]	; 0xffffffe8
 c0027cc:	e15b11f2 	ldrsh	r1, [fp, #-18]	; 0xffffffee
 c0027d0:	e1db30b8 	ldrh	r3, [fp, #8]
 c0027d4:	e1a030a3 	lsr	r3, r3, #1
 c0027d8:	e1a03803 	lsl	r3, r3, #16
 c0027dc:	e1a03823 	lsr	r3, r3, #16
 c0027e0:	e0813003 	add	r3, r1, r3
 c0027e4:	e1520003 	cmp	r2, r3
 c0027e8:	daffffa8 	ble	c002690 <Lcd_Draw_Line+0x258>
				LCD_PutPixel(wCurx, wpy, ucColor);
			}

			for (wpy = wNexty - usWidth / 2; wpy <= wNexty + usWidth / 2;
 c0027ec:	e15b21b6 	ldrh	r2, [fp, #-22]	; 0xffffffea
 c0027f0:	e1db30b8 	ldrh	r3, [fp, #8]
 c0027f4:	e1a030a3 	lsr	r3, r3, #1
 c0027f8:	e1a03803 	lsl	r3, r3, #16
 c0027fc:	e1a03823 	lsr	r3, r3, #16
 c002800:	e0633002 	rsb	r3, r3, r2
 c002804:	e1a03803 	lsl	r3, r3, #16
 c002808:	e1a03823 	lsr	r3, r3, #16
 c00280c:	e14b31b8 	strh	r3, [fp, #-24]	; 0xffffffe8
 c002810:	ea00004d 	b	c00294c <Lcd_Draw_Line+0x514>
					wpy++) {
				LCD_PutPixel(wNextx, wpy, ucColor);
 c002814:	e15b21f8 	ldrsh	r2, [fp, #-24]	; 0xffffffe8
 c002818:	e1a03002 	mov	r3, r2
 c00281c:	e1a03103 	lsl	r3, r3, #2
 c002820:	e0833002 	add	r3, r3, r2
 c002824:	e1a03303 	lsl	r3, r3, #6
 c002828:	e1a02fa3 	lsr	r2, r3, #31
 c00282c:	e0823003 	add	r3, r2, r3
 c002830:	e1a030c3 	asr	r3, r3, #1
 c002834:	e28326c3 	add	r2, r3, #204472320	; 0xc300000
 c002838:	e2822c96 	add	r2, r2, #38400	; 0x9600
 c00283c:	e15b31f4 	ldrsh	r3, [fp, #-20]	; 0xffffffec
 c002840:	e2831007 	add	r1, r3, #7
 c002844:	e3530000 	cmp	r3, #0
 c002848:	b1a03001 	movlt	r3, r1
 c00284c:	e1a031c3 	asr	r3, r3, #3
 c002850:	e1a03803 	lsl	r3, r3, #16
 c002854:	e1a03823 	lsr	r3, r3, #16
 c002858:	e1a03803 	lsl	r3, r3, #16
 c00285c:	e1a03843 	asr	r3, r3, #16
 c002860:	e1a03103 	lsl	r3, r3, #2
 c002864:	e0823003 	add	r3, r2, r3
 c002868:	e1a01003 	mov	r1, r3
 c00286c:	e15b21f8 	ldrsh	r2, [fp, #-24]	; 0xffffffe8
 c002870:	e1a03002 	mov	r3, r2
 c002874:	e1a03103 	lsl	r3, r3, #2
 c002878:	e0833002 	add	r3, r3, r2
 c00287c:	e1a03303 	lsl	r3, r3, #6
 c002880:	e1a02fa3 	lsr	r2, r3, #31
 c002884:	e0823003 	add	r3, r2, r3
 c002888:	e1a030c3 	asr	r3, r3, #1
 c00288c:	e28326c3 	add	r2, r3, #204472320	; 0xc300000
 c002890:	e2822c96 	add	r2, r2, #38400	; 0x9600
 c002894:	e15b31f4 	ldrsh	r3, [fp, #-20]	; 0xffffffec
 c002898:	e2830007 	add	r0, r3, #7
 c00289c:	e3530000 	cmp	r3, #0
 c0028a0:	b1a03000 	movlt	r3, r0
 c0028a4:	e1a031c3 	asr	r3, r3, #3
 c0028a8:	e1a03803 	lsl	r3, r3, #16
 c0028ac:	e1a03823 	lsr	r3, r3, #16
 c0028b0:	e1a03803 	lsl	r3, r3, #16
 c0028b4:	e1a03843 	asr	r3, r3, #16
 c0028b8:	e1a03103 	lsl	r3, r3, #2
 c0028bc:	e0823003 	add	r3, r2, r3
 c0028c0:	e5930000 	ldr	r0, [r3]
 c0028c4:	e15b21f4 	ldrsh	r2, [fp, #-20]	; 0xffffffec
 c0028c8:	e1a03fc2 	asr	r3, r2, #31
 c0028cc:	e1a03ea3 	lsr	r3, r3, #29
 c0028d0:	e0822003 	add	r2, r2, r3
 c0028d4:	e2022007 	and	r2, r2, #7
 c0028d8:	e0633002 	rsb	r3, r3, r2
 c0028dc:	e1a03803 	lsl	r3, r3, #16
 c0028e0:	e1a03823 	lsr	r3, r3, #16
 c0028e4:	e1a03803 	lsl	r3, r3, #16
 c0028e8:	e1a03843 	asr	r3, r3, #16
 c0028ec:	e1a03103 	lsl	r3, r3, #2
 c0028f0:	e3a0220f 	mov	r2, #-268435456	; 0xf0000000
 c0028f4:	e1a03332 	lsr	r3, r2, r3
 c0028f8:	e1e03003 	mvn	r3, r3
 c0028fc:	e0000003 	and	r0, r0, r3
 c002900:	e5dbc004 	ldrb	ip, [fp, #4]
 c002904:	e15b21f4 	ldrsh	r2, [fp, #-20]	; 0xffffffec
 c002908:	e1a03fc2 	asr	r3, r2, #31
 c00290c:	e1a03ea3 	lsr	r3, r3, #29
 c002910:	e0822003 	add	r2, r2, r3
 c002914:	e2022007 	and	r2, r2, #7
 c002918:	e0633002 	rsb	r3, r3, r2
 c00291c:	e1a03803 	lsl	r3, r3, #16
 c002920:	e1a03823 	lsr	r3, r3, #16
 c002924:	e1a03803 	lsl	r3, r3, #16
 c002928:	e1a03843 	asr	r3, r3, #16
 c00292c:	e2633007 	rsb	r3, r3, #7
 c002930:	e1a03103 	lsl	r3, r3, #2
 c002934:	e1a0331c 	lsl	r3, ip, r3
 c002938:	e1803003 	orr	r3, r0, r3
 c00293c:	e5813000 	str	r3, [r1]
			for (wpy = wCury - usWidth / 2; wpy <= wCury + usWidth / 2; wpy++) {
				LCD_PutPixel(wCurx, wpy, ucColor);
			}

			for (wpy = wNexty - usWidth / 2; wpy <= wNexty + usWidth / 2;
					wpy++) {
 c002940:	e15b31b8 	ldrh	r3, [fp, #-24]	; 0xffffffe8
 c002944:	e2833001 	add	r3, r3, #1
 c002948:	e14b31b8 	strh	r3, [fp, #-24]	; 0xffffffe8
			}
			for (wpy = wCury - usWidth / 2; wpy <= wCury + usWidth / 2; wpy++) {
				LCD_PutPixel(wCurx, wpy, ucColor);
			}

			for (wpy = wNexty - usWidth / 2; wpy <= wNexty + usWidth / 2;
 c00294c:	e15b21f8 	ldrsh	r2, [fp, #-24]	; 0xffffffe8
 c002950:	e15b11f6 	ldrsh	r1, [fp, #-22]	; 0xffffffea
 c002954:	e1db30b8 	ldrh	r3, [fp, #8]
 c002958:	e1a030a3 	lsr	r3, r3, #1
 c00295c:	e1a03803 	lsl	r3, r3, #16
 c002960:	e1a03823 	lsr	r3, r3, #16
 c002964:	e0813003 	add	r3, r1, r3
 c002968:	e1520003 	cmp	r2, r3
 c00296c:	daffffa8 	ble	c002814 <Lcd_Draw_Line+0x3dc>
	y_sign = (usY1 - usY0) / usDy;
	x_sign = (usX1 - usX0) / usDx;

	if (usDx >= usDy) {
		for (wCurx = usX0, wCury = usY0, wNextx = usX1, wNexty = usY1, decision =
				(usDx >> 1); wCurx <= wNextx; wCurx++, wNextx--, decision +=
 c002970:	e15b31b0 	ldrh	r3, [fp, #-16]
 c002974:	e2833001 	add	r3, r3, #1
 c002978:	e14b31b0 	strh	r3, [fp, #-16]
 c00297c:	e15b31b4 	ldrh	r3, [fp, #-20]	; 0xffffffec
 c002980:	e2433001 	sub	r3, r3, #1
 c002984:	e14b31b4 	strh	r3, [fp, #-20]	; 0xffffffec
 c002988:	e15b20be 	ldrh	r2, [fp, #-14]
 c00298c:	e15b31be 	ldrh	r3, [fp, #-30]	; 0xffffffe2
 c002990:	e0823003 	add	r3, r2, r3
 c002994:	e1a03803 	lsl	r3, r3, #16
 c002998:	e1a03823 	lsr	r3, r3, #16
 c00299c:	e14b30be 	strh	r3, [fp, #-14]
	}
	y_sign = (usY1 - usY0) / usDy;
	x_sign = (usX1 - usX0) / usDx;

	if (usDx >= usDy) {
		for (wCurx = usX0, wCury = usY0, wNextx = usX1, wNexty = usY1, decision =
 c0029a0:	e15b21f0 	ldrsh	r2, [fp, #-16]
 c0029a4:	e15b31f4 	ldrsh	r3, [fp, #-20]	; 0xffffffec
 c0029a8:	e1520003 	cmp	r2, r3
 c0029ac:	daffff17 	ble	c002610 <Lcd_Draw_Line+0x1d8>
 c0029b0:	ea0000f3 	b	c002d84 <Lcd_Draw_Line+0x94c>
					wpy++) {
				LCD_PutPixel(wNextx, wpy, ucColor);
			}
		}
	} else {
		for (wCurx = usX0, wCury = usY0, wNextx = usX1, wNexty = usY1, decision =
 c0029b4:	e15b32b6 	ldrh	r3, [fp, #-38]	; 0xffffffda
 c0029b8:	e14b31b0 	strh	r3, [fp, #-16]
 c0029bc:	e15b32b8 	ldrh	r3, [fp, #-40]	; 0xffffffd8
 c0029c0:	e14b31b2 	strh	r3, [fp, #-18]	; 0xffffffee
 c0029c4:	e15b32ba 	ldrh	r3, [fp, #-42]	; 0xffffffd6
 c0029c8:	e14b31b4 	strh	r3, [fp, #-20]	; 0xffffffec
 c0029cc:	e15b32bc 	ldrh	r3, [fp, #-44]	; 0xffffffd4
 c0029d0:	e14b31b6 	strh	r3, [fp, #-22]	; 0xffffffea
 c0029d4:	e15b31fe 	ldrsh	r3, [fp, #-30]	; 0xffffffe2
 c0029d8:	e1a030c3 	asr	r3, r3, #1
 c0029dc:	e14b30be 	strh	r3, [fp, #-14]
 c0029e0:	ea0000e3 	b	c002d74 <Lcd_Draw_Line+0x93c>
				(usDy >> 1); wCury <= wNexty; wCury++, wNexty--, decision +=
				usDx) {
			if (decision >= usDy) {
 c0029e4:	e15b20fe 	ldrsh	r2, [fp, #-14]
 c0029e8:	e15b31fe 	ldrsh	r3, [fp, #-30]	; 0xffffffe2
 c0029ec:	e1520003 	cmp	r2, r3
 c0029f0:	ba000011 	blt	c002a3c <Lcd_Draw_Line+0x604>
				decision -= usDy;
 c0029f4:	e15b20be 	ldrh	r2, [fp, #-14]
 c0029f8:	e15b31be 	ldrh	r3, [fp, #-30]	; 0xffffffe2
 c0029fc:	e0633002 	rsb	r3, r3, r2
 c002a00:	e1a03803 	lsl	r3, r3, #16
 c002a04:	e1a03823 	lsr	r3, r3, #16
 c002a08:	e14b30be 	strh	r3, [fp, #-14]
				wCurx += x_sign;
 c002a0c:	e15b21b0 	ldrh	r2, [fp, #-16]
 c002a10:	e15b32b2 	ldrh	r3, [fp, #-34]	; 0xffffffde
 c002a14:	e0823003 	add	r3, r2, r3
 c002a18:	e1a03803 	lsl	r3, r3, #16
 c002a1c:	e1a03823 	lsr	r3, r3, #16
 c002a20:	e14b31b0 	strh	r3, [fp, #-16]
				wNextx -= x_sign;
 c002a24:	e15b21b4 	ldrh	r2, [fp, #-20]	; 0xffffffec
 c002a28:	e15b32b2 	ldrh	r3, [fp, #-34]	; 0xffffffde
 c002a2c:	e0633002 	rsb	r3, r3, r2
 c002a30:	e1a03803 	lsl	r3, r3, #16
 c002a34:	e1a03823 	lsr	r3, r3, #16
 c002a38:	e14b31b4 	strh	r3, [fp, #-20]	; 0xffffffec
			}
			for (wpx = wCurx - usWidth / 2; wpx <= wCurx + usWidth / 2; wpx++) {
 c002a3c:	e15b21b0 	ldrh	r2, [fp, #-16]
 c002a40:	e1db30b8 	ldrh	r3, [fp, #8]
 c002a44:	e1a030a3 	lsr	r3, r3, #1
 c002a48:	e1a03803 	lsl	r3, r3, #16
 c002a4c:	e1a03823 	lsr	r3, r3, #16
 c002a50:	e0633002 	rsb	r3, r3, r2
 c002a54:	e1a03803 	lsl	r3, r3, #16
 c002a58:	e1a03823 	lsr	r3, r3, #16
 c002a5c:	e14b31ba 	strh	r3, [fp, #-26]	; 0xffffffe6
 c002a60:	ea00004d 	b	c002b9c <Lcd_Draw_Line+0x764>
				LCD_PutPixel(wpx, wCury, ucColor);
 c002a64:	e15b21f2 	ldrsh	r2, [fp, #-18]	; 0xffffffee
 c002a68:	e1a03002 	mov	r3, r2
 c002a6c:	e1a03103 	lsl	r3, r3, #2
 c002a70:	e0833002 	add	r3, r3, r2
 c002a74:	e1a03303 	lsl	r3, r3, #6
 c002a78:	e1a02fa3 	lsr	r2, r3, #31
 c002a7c:	e0823003 	add	r3, r2, r3
 c002a80:	e1a030c3 	asr	r3, r3, #1
 c002a84:	e28326c3 	add	r2, r3, #204472320	; 0xc300000
 c002a88:	e2822c96 	add	r2, r2, #38400	; 0x9600
 c002a8c:	e15b31fa 	ldrsh	r3, [fp, #-26]	; 0xffffffe6
 c002a90:	e2831007 	add	r1, r3, #7
 c002a94:	e3530000 	cmp	r3, #0
 c002a98:	b1a03001 	movlt	r3, r1
 c002a9c:	e1a031c3 	asr	r3, r3, #3
 c002aa0:	e1a03803 	lsl	r3, r3, #16
 c002aa4:	e1a03823 	lsr	r3, r3, #16
 c002aa8:	e1a03803 	lsl	r3, r3, #16
 c002aac:	e1a03843 	asr	r3, r3, #16
 c002ab0:	e1a03103 	lsl	r3, r3, #2
 c002ab4:	e0823003 	add	r3, r2, r3
 c002ab8:	e1a01003 	mov	r1, r3
 c002abc:	e15b21f2 	ldrsh	r2, [fp, #-18]	; 0xffffffee
 c002ac0:	e1a03002 	mov	r3, r2
 c002ac4:	e1a03103 	lsl	r3, r3, #2
 c002ac8:	e0833002 	add	r3, r3, r2
 c002acc:	e1a03303 	lsl	r3, r3, #6
 c002ad0:	e1a02fa3 	lsr	r2, r3, #31
 c002ad4:	e0823003 	add	r3, r2, r3
 c002ad8:	e1a030c3 	asr	r3, r3, #1
 c002adc:	e28326c3 	add	r2, r3, #204472320	; 0xc300000
 c002ae0:	e2822c96 	add	r2, r2, #38400	; 0x9600
 c002ae4:	e15b31fa 	ldrsh	r3, [fp, #-26]	; 0xffffffe6
 c002ae8:	e2830007 	add	r0, r3, #7
 c002aec:	e3530000 	cmp	r3, #0
 c002af0:	b1a03000 	movlt	r3, r0
 c002af4:	e1a031c3 	asr	r3, r3, #3
 c002af8:	e1a03803 	lsl	r3, r3, #16
 c002afc:	e1a03823 	lsr	r3, r3, #16
 c002b00:	e1a03803 	lsl	r3, r3, #16
 c002b04:	e1a03843 	asr	r3, r3, #16
 c002b08:	e1a03103 	lsl	r3, r3, #2
 c002b0c:	e0823003 	add	r3, r2, r3
 c002b10:	e5930000 	ldr	r0, [r3]
 c002b14:	e15b21fa 	ldrsh	r2, [fp, #-26]	; 0xffffffe6
 c002b18:	e1a03fc2 	asr	r3, r2, #31
 c002b1c:	e1a03ea3 	lsr	r3, r3, #29
 c002b20:	e0822003 	add	r2, r2, r3
 c002b24:	e2022007 	and	r2, r2, #7
 c002b28:	e0633002 	rsb	r3, r3, r2
 c002b2c:	e1a03803 	lsl	r3, r3, #16
 c002b30:	e1a03823 	lsr	r3, r3, #16
 c002b34:	e1a03803 	lsl	r3, r3, #16
 c002b38:	e1a03843 	asr	r3, r3, #16
 c002b3c:	e1a03103 	lsl	r3, r3, #2
 c002b40:	e3a0220f 	mov	r2, #-268435456	; 0xf0000000
 c002b44:	e1a03332 	lsr	r3, r2, r3
 c002b48:	e1e03003 	mvn	r3, r3
 c002b4c:	e0000003 	and	r0, r0, r3
 c002b50:	e5dbc004 	ldrb	ip, [fp, #4]
 c002b54:	e15b21fa 	ldrsh	r2, [fp, #-26]	; 0xffffffe6
 c002b58:	e1a03fc2 	asr	r3, r2, #31
 c002b5c:	e1a03ea3 	lsr	r3, r3, #29
 c002b60:	e0822003 	add	r2, r2, r3
 c002b64:	e2022007 	and	r2, r2, #7
 c002b68:	e0633002 	rsb	r3, r3, r2
 c002b6c:	e1a03803 	lsl	r3, r3, #16
 c002b70:	e1a03823 	lsr	r3, r3, #16
 c002b74:	e1a03803 	lsl	r3, r3, #16
 c002b78:	e1a03843 	asr	r3, r3, #16
 c002b7c:	e2633007 	rsb	r3, r3, #7
 c002b80:	e1a03103 	lsl	r3, r3, #2
 c002b84:	e1a0331c 	lsl	r3, ip, r3
 c002b88:	e1803003 	orr	r3, r0, r3
 c002b8c:	e5813000 	str	r3, [r1]
			if (decision >= usDy) {
				decision -= usDy;
				wCurx += x_sign;
				wNextx -= x_sign;
			}
			for (wpx = wCurx - usWidth / 2; wpx <= wCurx + usWidth / 2; wpx++) {
 c002b90:	e15b31ba 	ldrh	r3, [fp, #-26]	; 0xffffffe6
 c002b94:	e2833001 	add	r3, r3, #1
 c002b98:	e14b31ba 	strh	r3, [fp, #-26]	; 0xffffffe6
 c002b9c:	e15b21fa 	ldrsh	r2, [fp, #-26]	; 0xffffffe6
 c002ba0:	e15b11f0 	ldrsh	r1, [fp, #-16]
 c002ba4:	e1db30b8 	ldrh	r3, [fp, #8]
 c002ba8:	e1a030a3 	lsr	r3, r3, #1
 c002bac:	e1a03803 	lsl	r3, r3, #16
 c002bb0:	e1a03823 	lsr	r3, r3, #16
 c002bb4:	e0813003 	add	r3, r1, r3
 c002bb8:	e1520003 	cmp	r2, r3
 c002bbc:	daffffa8 	ble	c002a64 <Lcd_Draw_Line+0x62c>
				LCD_PutPixel(wpx, wCury, ucColor);
			}

			for (wpx = wNextx - usWidth / 2; wpx <= wNextx + usWidth / 2;
 c002bc0:	e15b21b4 	ldrh	r2, [fp, #-20]	; 0xffffffec
 c002bc4:	e1db30b8 	ldrh	r3, [fp, #8]
 c002bc8:	e1a030a3 	lsr	r3, r3, #1
 c002bcc:	e1a03803 	lsl	r3, r3, #16
 c002bd0:	e1a03823 	lsr	r3, r3, #16
 c002bd4:	e0633002 	rsb	r3, r3, r2
 c002bd8:	e1a03803 	lsl	r3, r3, #16
 c002bdc:	e1a03823 	lsr	r3, r3, #16
 c002be0:	e14b31ba 	strh	r3, [fp, #-26]	; 0xffffffe6
 c002be4:	ea00004d 	b	c002d20 <Lcd_Draw_Line+0x8e8>
					wpx++) {
				LCD_PutPixel(wpx, wNexty, ucColor);
 c002be8:	e15b21f6 	ldrsh	r2, [fp, #-22]	; 0xffffffea
 c002bec:	e1a03002 	mov	r3, r2
 c002bf0:	e1a03103 	lsl	r3, r3, #2
 c002bf4:	e0833002 	add	r3, r3, r2
 c002bf8:	e1a03303 	lsl	r3, r3, #6
 c002bfc:	e1a02fa3 	lsr	r2, r3, #31
 c002c00:	e0823003 	add	r3, r2, r3
 c002c04:	e1a030c3 	asr	r3, r3, #1
 c002c08:	e28326c3 	add	r2, r3, #204472320	; 0xc300000
 c002c0c:	e2822c96 	add	r2, r2, #38400	; 0x9600
 c002c10:	e15b31fa 	ldrsh	r3, [fp, #-26]	; 0xffffffe6
 c002c14:	e2831007 	add	r1, r3, #7
 c002c18:	e3530000 	cmp	r3, #0
 c002c1c:	b1a03001 	movlt	r3, r1
 c002c20:	e1a031c3 	asr	r3, r3, #3
 c002c24:	e1a03803 	lsl	r3, r3, #16
 c002c28:	e1a03823 	lsr	r3, r3, #16
 c002c2c:	e1a03803 	lsl	r3, r3, #16
 c002c30:	e1a03843 	asr	r3, r3, #16
 c002c34:	e1a03103 	lsl	r3, r3, #2
 c002c38:	e0823003 	add	r3, r2, r3
 c002c3c:	e1a01003 	mov	r1, r3
 c002c40:	e15b21f6 	ldrsh	r2, [fp, #-22]	; 0xffffffea
 c002c44:	e1a03002 	mov	r3, r2
 c002c48:	e1a03103 	lsl	r3, r3, #2
 c002c4c:	e0833002 	add	r3, r3, r2
 c002c50:	e1a03303 	lsl	r3, r3, #6
 c002c54:	e1a02fa3 	lsr	r2, r3, #31
 c002c58:	e0823003 	add	r3, r2, r3
 c002c5c:	e1a030c3 	asr	r3, r3, #1
 c002c60:	e28326c3 	add	r2, r3, #204472320	; 0xc300000
 c002c64:	e2822c96 	add	r2, r2, #38400	; 0x9600
 c002c68:	e15b31fa 	ldrsh	r3, [fp, #-26]	; 0xffffffe6
 c002c6c:	e2830007 	add	r0, r3, #7
 c002c70:	e3530000 	cmp	r3, #0
 c002c74:	b1a03000 	movlt	r3, r0
 c002c78:	e1a031c3 	asr	r3, r3, #3
 c002c7c:	e1a03803 	lsl	r3, r3, #16
 c002c80:	e1a03823 	lsr	r3, r3, #16
 c002c84:	e1a03803 	lsl	r3, r3, #16
 c002c88:	e1a03843 	asr	r3, r3, #16
 c002c8c:	e1a03103 	lsl	r3, r3, #2
 c002c90:	e0823003 	add	r3, r2, r3
 c002c94:	e5930000 	ldr	r0, [r3]
 c002c98:	e15b21fa 	ldrsh	r2, [fp, #-26]	; 0xffffffe6
 c002c9c:	e1a03fc2 	asr	r3, r2, #31
 c002ca0:	e1a03ea3 	lsr	r3, r3, #29
 c002ca4:	e0822003 	add	r2, r2, r3
 c002ca8:	e2022007 	and	r2, r2, #7
 c002cac:	e0633002 	rsb	r3, r3, r2
 c002cb0:	e1a03803 	lsl	r3, r3, #16
 c002cb4:	e1a03823 	lsr	r3, r3, #16
 c002cb8:	e1a03803 	lsl	r3, r3, #16
 c002cbc:	e1a03843 	asr	r3, r3, #16
 c002cc0:	e1a03103 	lsl	r3, r3, #2
 c002cc4:	e3a0220f 	mov	r2, #-268435456	; 0xf0000000
 c002cc8:	e1a03332 	lsr	r3, r2, r3
 c002ccc:	e1e03003 	mvn	r3, r3
 c002cd0:	e0000003 	and	r0, r0, r3
 c002cd4:	e5dbc004 	ldrb	ip, [fp, #4]
 c002cd8:	e15b21fa 	ldrsh	r2, [fp, #-26]	; 0xffffffe6
 c002cdc:	e1a03fc2 	asr	r3, r2, #31
 c002ce0:	e1a03ea3 	lsr	r3, r3, #29
 c002ce4:	e0822003 	add	r2, r2, r3
 c002ce8:	e2022007 	and	r2, r2, #7
 c002cec:	e0633002 	rsb	r3, r3, r2
 c002cf0:	e1a03803 	lsl	r3, r3, #16
 c002cf4:	e1a03823 	lsr	r3, r3, #16
 c002cf8:	e1a03803 	lsl	r3, r3, #16
 c002cfc:	e1a03843 	asr	r3, r3, #16
 c002d00:	e2633007 	rsb	r3, r3, #7
 c002d04:	e1a03103 	lsl	r3, r3, #2
 c002d08:	e1a0331c 	lsl	r3, ip, r3
 c002d0c:	e1803003 	orr	r3, r0, r3
 c002d10:	e5813000 	str	r3, [r1]
			for (wpx = wCurx - usWidth / 2; wpx <= wCurx + usWidth / 2; wpx++) {
				LCD_PutPixel(wpx, wCury, ucColor);
			}

			for (wpx = wNextx - usWidth / 2; wpx <= wNextx + usWidth / 2;
					wpx++) {
 c002d14:	e15b31ba 	ldrh	r3, [fp, #-26]	; 0xffffffe6
 c002d18:	e2833001 	add	r3, r3, #1
 c002d1c:	e14b31ba 	strh	r3, [fp, #-26]	; 0xffffffe6
			}
			for (wpx = wCurx - usWidth / 2; wpx <= wCurx + usWidth / 2; wpx++) {
				LCD_PutPixel(wpx, wCury, ucColor);
			}

			for (wpx = wNextx - usWidth / 2; wpx <= wNextx + usWidth / 2;
 c002d20:	e15b21fa 	ldrsh	r2, [fp, #-26]	; 0xffffffe6
 c002d24:	e15b11f4 	ldrsh	r1, [fp, #-20]	; 0xffffffec
 c002d28:	e1db30b8 	ldrh	r3, [fp, #8]
 c002d2c:	e1a030a3 	lsr	r3, r3, #1
 c002d30:	e1a03803 	lsl	r3, r3, #16
 c002d34:	e1a03823 	lsr	r3, r3, #16
 c002d38:	e0813003 	add	r3, r1, r3
 c002d3c:	e1520003 	cmp	r2, r3
 c002d40:	daffffa8 	ble	c002be8 <Lcd_Draw_Line+0x7b0>
				LCD_PutPixel(wNextx, wpy, ucColor);
			}
		}
	} else {
		for (wCurx = usX0, wCury = usY0, wNextx = usX1, wNexty = usY1, decision =
				(usDy >> 1); wCury <= wNexty; wCury++, wNexty--, decision +=
 c002d44:	e15b31b2 	ldrh	r3, [fp, #-18]	; 0xffffffee
 c002d48:	e2833001 	add	r3, r3, #1
 c002d4c:	e14b31b2 	strh	r3, [fp, #-18]	; 0xffffffee
 c002d50:	e15b31b6 	ldrh	r3, [fp, #-22]	; 0xffffffea
 c002d54:	e2433001 	sub	r3, r3, #1
 c002d58:	e14b31b6 	strh	r3, [fp, #-22]	; 0xffffffea
 c002d5c:	e15b20be 	ldrh	r2, [fp, #-14]
 c002d60:	e15b31bc 	ldrh	r3, [fp, #-28]	; 0xffffffe4
 c002d64:	e0823003 	add	r3, r2, r3
 c002d68:	e1a03803 	lsl	r3, r3, #16
 c002d6c:	e1a03823 	lsr	r3, r3, #16
 c002d70:	e14b30be 	strh	r3, [fp, #-14]
					wpy++) {
				LCD_PutPixel(wNextx, wpy, ucColor);
			}
		}
	} else {
		for (wCurx = usX0, wCury = usY0, wNextx = usX1, wNexty = usY1, decision =
 c002d74:	e15b21f2 	ldrsh	r2, [fp, #-18]	; 0xffffffee
 c002d78:	e15b31f6 	ldrsh	r3, [fp, #-22]	; 0xffffffea
 c002d7c:	e1520003 	cmp	r2, r3
 c002d80:	daffff17 	ble	c0029e4 <Lcd_Draw_Line+0x5ac>
					wpx++) {
				LCD_PutPixel(wpx, wNexty, ucColor);
			}
		}
	}
}
 c002d84:	e24bd00c 	sub	sp, fp, #12
 c002d88:	e89d6800 	ldm	sp, {fp, sp, lr}
 c002d8c:	e12fff1e 	bx	lr

0c002d90 <Lcd_Draw_HLine>:
 * ret:		none
 * modify:
 * comment:
 *********************************************************************************************/
void Lcd_Draw_HLine(INT16 usX0, INT16 usX1, INT16 usY0, INT8U ucColor,
		INT16U usWidth) {
 c002d90:	e1a0c00d 	mov	ip, sp
 c002d94:	e92dd800 	push	{fp, ip, lr, pc}
 c002d98:	e24cb004 	sub	fp, ip, #4
 c002d9c:	e24dd010 	sub	sp, sp, #16
 c002da0:	e14b01b6 	strh	r0, [fp, #-22]	; 0xffffffea
 c002da4:	e14b11b8 	strh	r1, [fp, #-24]	; 0xffffffe8
 c002da8:	e14b21ba 	strh	r2, [fp, #-26]	; 0xffffffe6
 c002dac:	e54b301b 	strb	r3, [fp, #-27]	; 0xffffffe5
	INT16 usLen;

	if (usX1 < usX0) {
 c002db0:	e15b21f8 	ldrsh	r2, [fp, #-24]	; 0xffffffe8
 c002db4:	e15b31f6 	ldrsh	r3, [fp, #-22]	; 0xffffffea
 c002db8:	e1520003 	cmp	r2, r3
 c002dbc:	aa000067 	bge	c002f60 <Lcd_Draw_HLine+0x1d0>
		GUISWAP(usX1, usX0);
 c002dc0:	e15b21b8 	ldrh	r2, [fp, #-24]	; 0xffffffe8
 c002dc4:	e15b31b6 	ldrh	r3, [fp, #-22]	; 0xffffffea
 c002dc8:	e0223003 	eor	r3, r2, r3
 c002dcc:	e14b31b8 	strh	r3, [fp, #-24]	; 0xffffffe8
 c002dd0:	e15b21b6 	ldrh	r2, [fp, #-22]	; 0xffffffea
 c002dd4:	e15b31b8 	ldrh	r3, [fp, #-24]	; 0xffffffe8
 c002dd8:	e0223003 	eor	r3, r2, r3
 c002ddc:	e14b31b6 	strh	r3, [fp, #-22]	; 0xffffffea
 c002de0:	e15b21b8 	ldrh	r2, [fp, #-24]	; 0xffffffe8
 c002de4:	e15b31b6 	ldrh	r3, [fp, #-22]	; 0xffffffea
 c002de8:	e0223003 	eor	r3, r2, r3
 c002dec:	e14b31b8 	strh	r3, [fp, #-24]	; 0xffffffe8
	}

	while ((usWidth--) > 0) {
 c002df0:	ea00005b 	b	c002f64 <Lcd_Draw_HLine+0x1d4>
		usLen = usX1 - usX0 + 1;
 c002df4:	e15b21b8 	ldrh	r2, [fp, #-24]	; 0xffffffe8
 c002df8:	e15b31b6 	ldrh	r3, [fp, #-22]	; 0xffffffea
 c002dfc:	e0633002 	rsb	r3, r3, r2
 c002e00:	e1a03803 	lsl	r3, r3, #16
 c002e04:	e1a03823 	lsr	r3, r3, #16
 c002e08:	e2833001 	add	r3, r3, #1
 c002e0c:	e1a03803 	lsl	r3, r3, #16
 c002e10:	e1a03823 	lsr	r3, r3, #16
 c002e14:	e14b30be 	strh	r3, [fp, #-14]
		while ((usLen--) > 0) {
 c002e18:	ea000042 	b	c002f28 <Lcd_Draw_HLine+0x198>
			LCD_PutPixel(usX0 + usLen, usY0, ucColor);
 c002e1c:	e15b21fa 	ldrsh	r2, [fp, #-26]	; 0xffffffe6
 c002e20:	e1a03002 	mov	r3, r2
 c002e24:	e1a03103 	lsl	r3, r3, #2
 c002e28:	e0833002 	add	r3, r3, r2
 c002e2c:	e1a03303 	lsl	r3, r3, #6
 c002e30:	e1a02fa3 	lsr	r2, r3, #31
 c002e34:	e0823003 	add	r3, r2, r3
 c002e38:	e1a030c3 	asr	r3, r3, #1
 c002e3c:	e28326c3 	add	r2, r3, #204472320	; 0xc300000
 c002e40:	e2822c96 	add	r2, r2, #38400	; 0x9600
 c002e44:	e15b11f6 	ldrsh	r1, [fp, #-22]	; 0xffffffea
 c002e48:	e15b30fe 	ldrsh	r3, [fp, #-14]
 c002e4c:	e0813003 	add	r3, r1, r3
 c002e50:	e2831007 	add	r1, r3, #7
 c002e54:	e3530000 	cmp	r3, #0
 c002e58:	b1a03001 	movlt	r3, r1
 c002e5c:	e1a031c3 	asr	r3, r3, #3
 c002e60:	e1a03103 	lsl	r3, r3, #2
 c002e64:	e0823003 	add	r3, r2, r3
 c002e68:	e1a01003 	mov	r1, r3
 c002e6c:	e15b21fa 	ldrsh	r2, [fp, #-26]	; 0xffffffe6
 c002e70:	e1a03002 	mov	r3, r2
 c002e74:	e1a03103 	lsl	r3, r3, #2
 c002e78:	e0833002 	add	r3, r3, r2
 c002e7c:	e1a03303 	lsl	r3, r3, #6
 c002e80:	e1a02fa3 	lsr	r2, r3, #31
 c002e84:	e0823003 	add	r3, r2, r3
 c002e88:	e1a030c3 	asr	r3, r3, #1
 c002e8c:	e28326c3 	add	r2, r3, #204472320	; 0xc300000
 c002e90:	e2822c96 	add	r2, r2, #38400	; 0x9600
 c002e94:	e15b01f6 	ldrsh	r0, [fp, #-22]	; 0xffffffea
 c002e98:	e15b30fe 	ldrsh	r3, [fp, #-14]
 c002e9c:	e0803003 	add	r3, r0, r3
 c002ea0:	e2830007 	add	r0, r3, #7
 c002ea4:	e3530000 	cmp	r3, #0
 c002ea8:	b1a03000 	movlt	r3, r0
 c002eac:	e1a031c3 	asr	r3, r3, #3
 c002eb0:	e1a03103 	lsl	r3, r3, #2
 c002eb4:	e0823003 	add	r3, r2, r3
 c002eb8:	e5930000 	ldr	r0, [r3]
 c002ebc:	e15b21f6 	ldrsh	r2, [fp, #-22]	; 0xffffffea
 c002ec0:	e15b30fe 	ldrsh	r3, [fp, #-14]
 c002ec4:	e0822003 	add	r2, r2, r3
 c002ec8:	e1a03fc2 	asr	r3, r2, #31
 c002ecc:	e1a03ea3 	lsr	r3, r3, #29
 c002ed0:	e0822003 	add	r2, r2, r3
 c002ed4:	e2022007 	and	r2, r2, #7
 c002ed8:	e0633002 	rsb	r3, r3, r2
 c002edc:	e1a03103 	lsl	r3, r3, #2
 c002ee0:	e3a0220f 	mov	r2, #-268435456	; 0xf0000000
 c002ee4:	e1a03332 	lsr	r3, r2, r3
 c002ee8:	e1e03003 	mvn	r3, r3
 c002eec:	e0000003 	and	r0, r0, r3
 c002ef0:	e55bc01b 	ldrb	ip, [fp, #-27]	; 0xffffffe5
 c002ef4:	e15b21f6 	ldrsh	r2, [fp, #-22]	; 0xffffffea
 c002ef8:	e15b30fe 	ldrsh	r3, [fp, #-14]
 c002efc:	e0822003 	add	r2, r2, r3
 c002f00:	e1a03fc2 	asr	r3, r2, #31
 c002f04:	e1a03ea3 	lsr	r3, r3, #29
 c002f08:	e0822003 	add	r2, r2, r3
 c002f0c:	e2022007 	and	r2, r2, #7
 c002f10:	e0633002 	rsb	r3, r3, r2
 c002f14:	e2633007 	rsb	r3, r3, #7
 c002f18:	e1a03103 	lsl	r3, r3, #2
 c002f1c:	e1a0331c 	lsl	r3, ip, r3
 c002f20:	e1803003 	orr	r3, r0, r3
 c002f24:	e5813000 	str	r3, [r1]
		GUISWAP(usX1, usX0);
	}

	while ((usWidth--) > 0) {
		usLen = usX1 - usX0 + 1;
		while ((usLen--) > 0) {
 c002f28:	e15b30fe 	ldrsh	r3, [fp, #-14]
 c002f2c:	e3530000 	cmp	r3, #0
 c002f30:	d3a03000 	movle	r3, #0
 c002f34:	c3a03001 	movgt	r3, #1
 c002f38:	e20330ff 	and	r3, r3, #255	; 0xff
 c002f3c:	e15b20be 	ldrh	r2, [fp, #-14]
 c002f40:	e2422001 	sub	r2, r2, #1
 c002f44:	e14b20be 	strh	r2, [fp, #-14]
 c002f48:	e3530000 	cmp	r3, #0
 c002f4c:	1affffb2 	bne	c002e1c <Lcd_Draw_HLine+0x8c>
			LCD_PutPixel(usX0 + usLen, usY0, ucColor);
		}
		usY0++;
 c002f50:	e15b31ba 	ldrh	r3, [fp, #-26]	; 0xffffffe6
 c002f54:	e2833001 	add	r3, r3, #1
 c002f58:	e14b31ba 	strh	r3, [fp, #-26]	; 0xffffffe6
 c002f5c:	ea000000 	b	c002f64 <Lcd_Draw_HLine+0x1d4>

	if (usX1 < usX0) {
		GUISWAP(usX1, usX0);
	}

	while ((usWidth--) > 0) {
 c002f60:	e1a00000 	nop			; (mov r0, r0)
 c002f64:	e1db30b4 	ldrh	r3, [fp, #4]
 c002f68:	e3530000 	cmp	r3, #0
 c002f6c:	03a03000 	moveq	r3, #0
 c002f70:	13a03001 	movne	r3, #1
 c002f74:	e20330ff 	and	r3, r3, #255	; 0xff
 c002f78:	e1db20b4 	ldrh	r2, [fp, #4]
 c002f7c:	e2422001 	sub	r2, r2, #1
 c002f80:	e1cb20b4 	strh	r2, [fp, #4]
 c002f84:	e3530000 	cmp	r3, #0
 c002f88:	1affff99 	bne	c002df4 <Lcd_Draw_HLine+0x64>
		while ((usLen--) > 0) {
			LCD_PutPixel(usX0 + usLen, usY0, ucColor);
		}
		usY0++;
	}
}
 c002f8c:	e24bd00c 	sub	sp, fp, #12
 c002f90:	e89d6800 	ldm	sp, {fp, sp, lr}
 c002f94:	e12fff1e 	bx	lr

0c002f98 <Lcd_Draw_VLine>:
 * ret:		none
 * modify:
 * comment:
 *********************************************************************************************/
void Lcd_Draw_VLine(INT16 usY0, INT16 usY1, INT16 usX0, INT8U ucColor,
		INT16U usWidth) {
 c002f98:	e1a0c00d 	mov	ip, sp
 c002f9c:	e92dd800 	push	{fp, ip, lr, pc}
 c002fa0:	e24cb004 	sub	fp, ip, #4
 c002fa4:	e24dd010 	sub	sp, sp, #16
 c002fa8:	e14b01b6 	strh	r0, [fp, #-22]	; 0xffffffea
 c002fac:	e14b11b8 	strh	r1, [fp, #-24]	; 0xffffffe8
 c002fb0:	e14b21ba 	strh	r2, [fp, #-26]	; 0xffffffe6
 c002fb4:	e54b301b 	strb	r3, [fp, #-27]	; 0xffffffe5
	INT16 usLen;

	if (usY1 < usY0) {
 c002fb8:	e15b21f8 	ldrsh	r2, [fp, #-24]	; 0xffffffe8
 c002fbc:	e15b31f6 	ldrsh	r3, [fp, #-22]	; 0xffffffea
 c002fc0:	e1520003 	cmp	r2, r3
 c002fc4:	aa000073 	bge	c003198 <Lcd_Draw_VLine+0x200>
		GUISWAP(usY1, usY0);
 c002fc8:	e15b21b8 	ldrh	r2, [fp, #-24]	; 0xffffffe8
 c002fcc:	e15b31b6 	ldrh	r3, [fp, #-22]	; 0xffffffea
 c002fd0:	e0223003 	eor	r3, r2, r3
 c002fd4:	e14b31b8 	strh	r3, [fp, #-24]	; 0xffffffe8
 c002fd8:	e15b21b6 	ldrh	r2, [fp, #-22]	; 0xffffffea
 c002fdc:	e15b31b8 	ldrh	r3, [fp, #-24]	; 0xffffffe8
 c002fe0:	e0223003 	eor	r3, r2, r3
 c002fe4:	e14b31b6 	strh	r3, [fp, #-22]	; 0xffffffea
 c002fe8:	e15b21b8 	ldrh	r2, [fp, #-24]	; 0xffffffe8
 c002fec:	e15b31b6 	ldrh	r3, [fp, #-22]	; 0xffffffea
 c002ff0:	e0223003 	eor	r3, r2, r3
 c002ff4:	e14b31b8 	strh	r3, [fp, #-24]	; 0xffffffe8
	}

	while ((usWidth--) > 0) {
 c002ff8:	ea000067 	b	c00319c <Lcd_Draw_VLine+0x204>
		usLen = usY1 - usY0 + 1;
 c002ffc:	e15b21b8 	ldrh	r2, [fp, #-24]	; 0xffffffe8
 c003000:	e15b31b6 	ldrh	r3, [fp, #-22]	; 0xffffffea
 c003004:	e0633002 	rsb	r3, r3, r2
 c003008:	e1a03803 	lsl	r3, r3, #16
 c00300c:	e1a03823 	lsr	r3, r3, #16
 c003010:	e2833001 	add	r3, r3, #1
 c003014:	e1a03803 	lsl	r3, r3, #16
 c003018:	e1a03823 	lsr	r3, r3, #16
 c00301c:	e14b30be 	strh	r3, [fp, #-14]
		while ((usLen--) > 0) {
 c003020:	ea00004e 	b	c003160 <Lcd_Draw_VLine+0x1c8>
			LCD_PutPixel(usX0, usY0 + usLen, ucColor);
 c003024:	e15b21f6 	ldrsh	r2, [fp, #-22]	; 0xffffffea
 c003028:	e15b30fe 	ldrsh	r3, [fp, #-14]
 c00302c:	e0822003 	add	r2, r2, r3
 c003030:	e1a03002 	mov	r3, r2
 c003034:	e1a03103 	lsl	r3, r3, #2
 c003038:	e0833002 	add	r3, r3, r2
 c00303c:	e1a03303 	lsl	r3, r3, #6
 c003040:	e1a02fa3 	lsr	r2, r3, #31
 c003044:	e0823003 	add	r3, r2, r3
 c003048:	e1a030c3 	asr	r3, r3, #1
 c00304c:	e28326c3 	add	r2, r3, #204472320	; 0xc300000
 c003050:	e2822c96 	add	r2, r2, #38400	; 0x9600
 c003054:	e15b31fa 	ldrsh	r3, [fp, #-26]	; 0xffffffe6
 c003058:	e2831007 	add	r1, r3, #7
 c00305c:	e3530000 	cmp	r3, #0
 c003060:	b1a03001 	movlt	r3, r1
 c003064:	e1a031c3 	asr	r3, r3, #3
 c003068:	e1a03803 	lsl	r3, r3, #16
 c00306c:	e1a03823 	lsr	r3, r3, #16
 c003070:	e1a03803 	lsl	r3, r3, #16
 c003074:	e1a03843 	asr	r3, r3, #16
 c003078:	e1a03103 	lsl	r3, r3, #2
 c00307c:	e0823003 	add	r3, r2, r3
 c003080:	e1a01003 	mov	r1, r3
 c003084:	e15b21f6 	ldrsh	r2, [fp, #-22]	; 0xffffffea
 c003088:	e15b30fe 	ldrsh	r3, [fp, #-14]
 c00308c:	e0822003 	add	r2, r2, r3
 c003090:	e1a03002 	mov	r3, r2
 c003094:	e1a03103 	lsl	r3, r3, #2
 c003098:	e0833002 	add	r3, r3, r2
 c00309c:	e1a03303 	lsl	r3, r3, #6
 c0030a0:	e1a02fa3 	lsr	r2, r3, #31
 c0030a4:	e0823003 	add	r3, r2, r3
 c0030a8:	e1a030c3 	asr	r3, r3, #1
 c0030ac:	e28326c3 	add	r2, r3, #204472320	; 0xc300000
 c0030b0:	e2822c96 	add	r2, r2, #38400	; 0x9600
 c0030b4:	e15b31fa 	ldrsh	r3, [fp, #-26]	; 0xffffffe6
 c0030b8:	e2830007 	add	r0, r3, #7
 c0030bc:	e3530000 	cmp	r3, #0
 c0030c0:	b1a03000 	movlt	r3, r0
 c0030c4:	e1a031c3 	asr	r3, r3, #3
 c0030c8:	e1a03803 	lsl	r3, r3, #16
 c0030cc:	e1a03823 	lsr	r3, r3, #16
 c0030d0:	e1a03803 	lsl	r3, r3, #16
 c0030d4:	e1a03843 	asr	r3, r3, #16
 c0030d8:	e1a03103 	lsl	r3, r3, #2
 c0030dc:	e0823003 	add	r3, r2, r3
 c0030e0:	e5930000 	ldr	r0, [r3]
 c0030e4:	e15b21fa 	ldrsh	r2, [fp, #-26]	; 0xffffffe6
 c0030e8:	e1a03fc2 	asr	r3, r2, #31
 c0030ec:	e1a03ea3 	lsr	r3, r3, #29
 c0030f0:	e0822003 	add	r2, r2, r3
 c0030f4:	e2022007 	and	r2, r2, #7
 c0030f8:	e0633002 	rsb	r3, r3, r2
 c0030fc:	e1a03803 	lsl	r3, r3, #16
 c003100:	e1a03823 	lsr	r3, r3, #16
 c003104:	e1a03803 	lsl	r3, r3, #16
 c003108:	e1a03843 	asr	r3, r3, #16
 c00310c:	e1a03103 	lsl	r3, r3, #2
 c003110:	e3a0220f 	mov	r2, #-268435456	; 0xf0000000
 c003114:	e1a03332 	lsr	r3, r2, r3
 c003118:	e1e03003 	mvn	r3, r3
 c00311c:	e0000003 	and	r0, r0, r3
 c003120:	e55bc01b 	ldrb	ip, [fp, #-27]	; 0xffffffe5
 c003124:	e15b21fa 	ldrsh	r2, [fp, #-26]	; 0xffffffe6
 c003128:	e1a03fc2 	asr	r3, r2, #31
 c00312c:	e1a03ea3 	lsr	r3, r3, #29
 c003130:	e0822003 	add	r2, r2, r3
 c003134:	e2022007 	and	r2, r2, #7
 c003138:	e0633002 	rsb	r3, r3, r2
 c00313c:	e1a03803 	lsl	r3, r3, #16
 c003140:	e1a03823 	lsr	r3, r3, #16
 c003144:	e1a03803 	lsl	r3, r3, #16
 c003148:	e1a03843 	asr	r3, r3, #16
 c00314c:	e2633007 	rsb	r3, r3, #7
 c003150:	e1a03103 	lsl	r3, r3, #2
 c003154:	e1a0331c 	lsl	r3, ip, r3
 c003158:	e1803003 	orr	r3, r0, r3
 c00315c:	e5813000 	str	r3, [r1]
		GUISWAP(usY1, usY0);
	}

	while ((usWidth--) > 0) {
		usLen = usY1 - usY0 + 1;
		while ((usLen--) > 0) {
 c003160:	e15b30fe 	ldrsh	r3, [fp, #-14]
 c003164:	e3530000 	cmp	r3, #0
 c003168:	d3a03000 	movle	r3, #0
 c00316c:	c3a03001 	movgt	r3, #1
 c003170:	e20330ff 	and	r3, r3, #255	; 0xff
 c003174:	e15b20be 	ldrh	r2, [fp, #-14]
 c003178:	e2422001 	sub	r2, r2, #1
 c00317c:	e14b20be 	strh	r2, [fp, #-14]
 c003180:	e3530000 	cmp	r3, #0
 c003184:	1affffa6 	bne	c003024 <Lcd_Draw_VLine+0x8c>
			LCD_PutPixel(usX0, usY0 + usLen, ucColor);
		}
		usX0++;
 c003188:	e15b31ba 	ldrh	r3, [fp, #-26]	; 0xffffffe6
 c00318c:	e2833001 	add	r3, r3, #1
 c003190:	e14b31ba 	strh	r3, [fp, #-26]	; 0xffffffe6
 c003194:	ea000000 	b	c00319c <Lcd_Draw_VLine+0x204>

	if (usY1 < usY0) {
		GUISWAP(usY1, usY0);
	}

	while ((usWidth--) > 0) {
 c003198:	e1a00000 	nop			; (mov r0, r0)
 c00319c:	e1db30b4 	ldrh	r3, [fp, #4]
 c0031a0:	e3530000 	cmp	r3, #0
 c0031a4:	03a03000 	moveq	r3, #0
 c0031a8:	13a03001 	movne	r3, #1
 c0031ac:	e20330ff 	and	r3, r3, #255	; 0xff
 c0031b0:	e1db20b4 	ldrh	r2, [fp, #4]
 c0031b4:	e2422001 	sub	r2, r2, #1
 c0031b8:	e1cb20b4 	strh	r2, [fp, #4]
 c0031bc:	e3530000 	cmp	r3, #0
 c0031c0:	1affff8d 	bne	c002ffc <Lcd_Draw_VLine+0x64>
		while ((usLen--) > 0) {
			LCD_PutPixel(usX0, usY0 + usLen, ucColor);
		}
		usX0++;
	}
}
 c0031c4:	e24bd00c 	sub	sp, fp, #12
 c0031c8:	e89d6800 	ldm	sp, {fp, sp, lr}
 c0031cc:	e12fff1e 	bx	lr

0c0031d0 <Lcd_DspAscII8x16>:
 *			pucChar   -- ASCII character string
 * ret:		none
 * modify:
 * comment:
 *********************************************************************************************/
void Lcd_DspAscII8x16(INT16U x0, INT16U y0, INT8U ForeColor, INT8U * s) {
 c0031d0:	e1a0c00d 	mov	ip, sp
 c0031d4:	e92dd810 	push	{r4, fp, ip, lr, pc}
 c0031d8:	e24cb004 	sub	fp, ip, #4
 c0031dc:	e24dd03c 	sub	sp, sp, #60	; 0x3c
 c0031e0:	e50b3048 	str	r3, [fp, #-72]	; 0xffffffb8
 c0031e4:	e14b03be 	strh	r0, [fp, #-62]	; 0xffffffc2
 c0031e8:	e14b14b0 	strh	r1, [fp, #-64]	; 0xffffffc0
 c0031ec:	e1a03002 	mov	r3, r2
 c0031f0:	e54b3041 	strb	r3, [fp, #-65]	; 0xffffffbf
	INT16 i, j, k, x, y, xx;
	INT8U qm;
	INT32U ulOffset;
	INT8 ywbuf[16], temp[2];

	for (i = 0; i < strlen((const char*) s); i++) {
 c0031f4:	e3a03000 	mov	r3, #0
 c0031f8:	e14b31b6 	strh	r3, [fp, #-22]	; 0xffffffea
 c0031fc:	ea0000ae 	b	c0034bc <Lcd_DspAscII8x16+0x2ec>
		if ((INT8U) *(s + i) >= 161) {
 c003200:	e15b31f6 	ldrsh	r3, [fp, #-22]	; 0xffffffea
 c003204:	e51b2048 	ldr	r2, [fp, #-72]	; 0xffffffb8
 c003208:	e0823003 	add	r3, r2, r3
 c00320c:	e5d33000 	ldrb	r3, [r3]
 c003210:	e35300a0 	cmp	r3, #160	; 0xa0
 c003214:	9a000007 	bls	c003238 <Lcd_DspAscII8x16+0x68>
			temp[0] = *(s + i);
 c003218:	e15b31f6 	ldrsh	r3, [fp, #-22]	; 0xffffffea
 c00321c:	e51b2048 	ldr	r2, [fp, #-72]	; 0xffffffb8
 c003220:	e0823003 	add	r3, r2, r3
 c003224:	e5d33000 	ldrb	r3, [r3]
 c003228:	e54b303c 	strb	r3, [fp, #-60]	; 0xffffffc4
			temp[1] = '\0';
 c00322c:	e3a03000 	mov	r3, #0
 c003230:	e54b303b 	strb	r3, [fp, #-59]	; 0xffffffc5
			return;
 c003234:	ea0000a6 	b	c0034d4 <Lcd_DspAscII8x16+0x304>
		} else {
			qm = *(s + i);
 c003238:	e15b31f6 	ldrsh	r3, [fp, #-22]	; 0xffffffea
 c00323c:	e51b2048 	ldr	r2, [fp, #-72]	; 0xffffffb8
 c003240:	e0823003 	add	r3, r2, r3
 c003244:	e5d33000 	ldrb	r3, [r3]
 c003248:	e54b301d 	strb	r3, [fp, #-29]	; 0xffffffe3
			ulOffset = (INT32U) (qm) * 16;		//Here to be changed tomorrow
 c00324c:	e55b301d 	ldrb	r3, [fp, #-29]	; 0xffffffe3
 c003250:	e1a03203 	lsl	r3, r3, #4
 c003254:	e50b3024 	str	r3, [fp, #-36]	; 0xffffffdc
			for (j = 0; j < 16; j++) {
 c003258:	e3a03000 	mov	r3, #0
 c00325c:	e14b31b8 	strh	r3, [fp, #-24]	; 0xffffffe8
 c003260:	ea00000d 	b	c00329c <Lcd_DspAscII8x16+0xcc>
				ywbuf[j] = g_auc_Ascii8x16[ulOffset + j];
 c003264:	e15b11f8 	ldrsh	r1, [fp, #-24]	; 0xffffffe8
 c003268:	e15b21f8 	ldrsh	r2, [fp, #-24]	; 0xffffffe8
 c00326c:	e51b3024 	ldr	r3, [fp, #-36]	; 0xffffffdc
 c003270:	e0823003 	add	r3, r2, r3
 c003274:	e59f2264 	ldr	r2, [pc, #612]	; c0034e0 <Lcd_DspAscII8x16+0x310>
 c003278:	e7d22003 	ldrb	r2, [r2, r3]
 c00327c:	e3e03023 	mvn	r3, #35	; 0x23
 c003280:	e24b0014 	sub	r0, fp, #20
 c003284:	e0801001 	add	r1, r0, r1
 c003288:	e0813003 	add	r3, r1, r3
 c00328c:	e5c32000 	strb	r2, [r3]
			temp[1] = '\0';
			return;
		} else {
			qm = *(s + i);
			ulOffset = (INT32U) (qm) * 16;		//Here to be changed tomorrow
			for (j = 0; j < 16; j++) {
 c003290:	e15b31b8 	ldrh	r3, [fp, #-24]	; 0xffffffe8
 c003294:	e2833001 	add	r3, r3, #1
 c003298:	e14b31b8 	strh	r3, [fp, #-24]	; 0xffffffe8
 c00329c:	e15b31f8 	ldrsh	r3, [fp, #-24]	; 0xffffffe8
 c0032a0:	e353000f 	cmp	r3, #15
 c0032a4:	daffffee 	ble	c003264 <Lcd_DspAscII8x16+0x94>
				ywbuf[j] = g_auc_Ascii8x16[ulOffset + j];
			}

			for (y = 0; y < 16; y++) {
 c0032a8:	e3a03000 	mov	r3, #0
 c0032ac:	e14b31bc 	strh	r3, [fp, #-28]	; 0xffffffe4
 c0032b0:	ea00007b 	b	c0034a4 <Lcd_DspAscII8x16+0x2d4>
				for (x = 0; x < 8; x++) {
 c0032b4:	e3a03000 	mov	r3, #0
 c0032b8:	e14b31ba 	strh	r3, [fp, #-26]	; 0xffffffe6
 c0032bc:	ea000072 	b	c00348c <Lcd_DspAscII8x16+0x2bc>
					k = x % 8;
 c0032c0:	e15b21fa 	ldrsh	r2, [fp, #-26]	; 0xffffffe6
 c0032c4:	e1a03fc2 	asr	r3, r2, #31
 c0032c8:	e1a03ea3 	lsr	r3, r3, #29
 c0032cc:	e0822003 	add	r2, r2, r3
 c0032d0:	e2022007 	and	r2, r2, #7
 c0032d4:	e0633002 	rsb	r3, r3, r2
 c0032d8:	e14b32b6 	strh	r3, [fp, #-38]	; 0xffffffda
					if (ywbuf[y] & (0x80 >> k)) {
 c0032dc:	e15b21fc 	ldrsh	r2, [fp, #-28]	; 0xffffffe4
 c0032e0:	e3e03023 	mvn	r3, #35	; 0x23
 c0032e4:	e24b1014 	sub	r1, fp, #20
 c0032e8:	e0812002 	add	r2, r1, r2
 c0032ec:	e0823003 	add	r3, r2, r3
 c0032f0:	e5d33000 	ldrb	r3, [r3]
 c0032f4:	e1a02003 	mov	r2, r3
 c0032f8:	e15b32f6 	ldrsh	r3, [fp, #-38]	; 0xffffffda
 c0032fc:	e3a01080 	mov	r1, #128	; 0x80
 c003300:	e1a03351 	asr	r3, r1, r3
 c003304:	e0023003 	and	r3, r2, r3
 c003308:	e3530000 	cmp	r3, #0
 c00330c:	0a00005b 	beq	c003480 <Lcd_DspAscII8x16+0x2b0>
						xx = x0 + x + i * 8;
 c003310:	e15b21ba 	ldrh	r2, [fp, #-26]	; 0xffffffe6
 c003314:	e15b33be 	ldrh	r3, [fp, #-62]	; 0xffffffc2
 c003318:	e0823003 	add	r3, r2, r3
 c00331c:	e1a03803 	lsl	r3, r3, #16
 c003320:	e1a02823 	lsr	r2, r3, #16
 c003324:	e15b31b6 	ldrh	r3, [fp, #-22]	; 0xffffffea
 c003328:	e1a03183 	lsl	r3, r3, #3
 c00332c:	e1a03803 	lsl	r3, r3, #16
 c003330:	e1a03823 	lsr	r3, r3, #16
 c003334:	e0823003 	add	r3, r2, r3
 c003338:	e1a03803 	lsl	r3, r3, #16
 c00333c:	e1a03823 	lsr	r3, r3, #16
 c003340:	e14b32b8 	strh	r3, [fp, #-40]	; 0xffffffd8
						LCD_PutPixel(xx, y + y0, (INT8U)ForeColor);
 c003344:	e15b21fc 	ldrsh	r2, [fp, #-28]	; 0xffffffe4
 c003348:	e15b34b0 	ldrh	r3, [fp, #-64]	; 0xffffffc0
 c00334c:	e0822003 	add	r2, r2, r3
 c003350:	e1a03002 	mov	r3, r2
 c003354:	e1a03103 	lsl	r3, r3, #2
 c003358:	e0833002 	add	r3, r3, r2
 c00335c:	e1a03303 	lsl	r3, r3, #6
 c003360:	e1a02fa3 	lsr	r2, r3, #31
 c003364:	e0823003 	add	r3, r2, r3
 c003368:	e1a030c3 	asr	r3, r3, #1
 c00336c:	e28326c3 	add	r2, r3, #204472320	; 0xc300000
 c003370:	e2822c96 	add	r2, r2, #38400	; 0x9600
 c003374:	e15b32f8 	ldrsh	r3, [fp, #-40]	; 0xffffffd8
 c003378:	e2831007 	add	r1, r3, #7
 c00337c:	e3530000 	cmp	r3, #0
 c003380:	b1a03001 	movlt	r3, r1
 c003384:	e1a031c3 	asr	r3, r3, #3
 c003388:	e1a03803 	lsl	r3, r3, #16
 c00338c:	e1a03823 	lsr	r3, r3, #16
 c003390:	e1a03803 	lsl	r3, r3, #16
 c003394:	e1a03843 	asr	r3, r3, #16
 c003398:	e1a03103 	lsl	r3, r3, #2
 c00339c:	e0823003 	add	r3, r2, r3
 c0033a0:	e1a01003 	mov	r1, r3
 c0033a4:	e15b21fc 	ldrsh	r2, [fp, #-28]	; 0xffffffe4
 c0033a8:	e15b34b0 	ldrh	r3, [fp, #-64]	; 0xffffffc0
 c0033ac:	e0822003 	add	r2, r2, r3
 c0033b0:	e1a03002 	mov	r3, r2
 c0033b4:	e1a03103 	lsl	r3, r3, #2
 c0033b8:	e0833002 	add	r3, r3, r2
 c0033bc:	e1a03303 	lsl	r3, r3, #6
 c0033c0:	e1a02fa3 	lsr	r2, r3, #31
 c0033c4:	e0823003 	add	r3, r2, r3
 c0033c8:	e1a030c3 	asr	r3, r3, #1
 c0033cc:	e28326c3 	add	r2, r3, #204472320	; 0xc300000
 c0033d0:	e2822c96 	add	r2, r2, #38400	; 0x9600
 c0033d4:	e15b32f8 	ldrsh	r3, [fp, #-40]	; 0xffffffd8
 c0033d8:	e2830007 	add	r0, r3, #7
 c0033dc:	e3530000 	cmp	r3, #0
 c0033e0:	b1a03000 	movlt	r3, r0
 c0033e4:	e1a031c3 	asr	r3, r3, #3
 c0033e8:	e1a03803 	lsl	r3, r3, #16
 c0033ec:	e1a03823 	lsr	r3, r3, #16
 c0033f0:	e1a03803 	lsl	r3, r3, #16
 c0033f4:	e1a03843 	asr	r3, r3, #16
 c0033f8:	e1a03103 	lsl	r3, r3, #2
 c0033fc:	e0823003 	add	r3, r2, r3
 c003400:	e5930000 	ldr	r0, [r3]
 c003404:	e15b22f8 	ldrsh	r2, [fp, #-40]	; 0xffffffd8
 c003408:	e1a03fc2 	asr	r3, r2, #31
 c00340c:	e1a03ea3 	lsr	r3, r3, #29
 c003410:	e0822003 	add	r2, r2, r3
 c003414:	e2022007 	and	r2, r2, #7
 c003418:	e0633002 	rsb	r3, r3, r2
 c00341c:	e1a03803 	lsl	r3, r3, #16
 c003420:	e1a03823 	lsr	r3, r3, #16
 c003424:	e1a03803 	lsl	r3, r3, #16
 c003428:	e1a03843 	asr	r3, r3, #16
 c00342c:	e1a03103 	lsl	r3, r3, #2
 c003430:	e3a0220f 	mov	r2, #-268435456	; 0xf0000000
 c003434:	e1a03332 	lsr	r3, r2, r3
 c003438:	e1e03003 	mvn	r3, r3
 c00343c:	e0000003 	and	r0, r0, r3
 c003440:	e55bc041 	ldrb	ip, [fp, #-65]	; 0xffffffbf
 c003444:	e15b22f8 	ldrsh	r2, [fp, #-40]	; 0xffffffd8
 c003448:	e1a03fc2 	asr	r3, r2, #31
 c00344c:	e1a03ea3 	lsr	r3, r3, #29
 c003450:	e0822003 	add	r2, r2, r3
 c003454:	e2022007 	and	r2, r2, #7
 c003458:	e0633002 	rsb	r3, r3, r2
 c00345c:	e1a03803 	lsl	r3, r3, #16
 c003460:	e1a03823 	lsr	r3, r3, #16
 c003464:	e1a03803 	lsl	r3, r3, #16
 c003468:	e1a03843 	asr	r3, r3, #16
 c00346c:	e2633007 	rsb	r3, r3, #7
 c003470:	e1a03103 	lsl	r3, r3, #2
 c003474:	e1a0331c 	lsl	r3, ip, r3
 c003478:	e1803003 	orr	r3, r0, r3
 c00347c:	e5813000 	str	r3, [r1]
			for (j = 0; j < 16; j++) {
				ywbuf[j] = g_auc_Ascii8x16[ulOffset + j];
			}

			for (y = 0; y < 16; y++) {
				for (x = 0; x < 8; x++) {
 c003480:	e15b31ba 	ldrh	r3, [fp, #-26]	; 0xffffffe6
 c003484:	e2833001 	add	r3, r3, #1
 c003488:	e14b31ba 	strh	r3, [fp, #-26]	; 0xffffffe6
 c00348c:	e15b31fa 	ldrsh	r3, [fp, #-26]	; 0xffffffe6
 c003490:	e3530007 	cmp	r3, #7
 c003494:	daffff89 	ble	c0032c0 <Lcd_DspAscII8x16+0xf0>
			ulOffset = (INT32U) (qm) * 16;		//Here to be changed tomorrow
			for (j = 0; j < 16; j++) {
				ywbuf[j] = g_auc_Ascii8x16[ulOffset + j];
			}

			for (y = 0; y < 16; y++) {
 c003498:	e15b31bc 	ldrh	r3, [fp, #-28]	; 0xffffffe4
 c00349c:	e2833001 	add	r3, r3, #1
 c0034a0:	e14b31bc 	strh	r3, [fp, #-28]	; 0xffffffe4
 c0034a4:	e15b31fc 	ldrsh	r3, [fp, #-28]	; 0xffffffe4
 c0034a8:	e353000f 	cmp	r3, #15
 c0034ac:	daffff80 	ble	c0032b4 <Lcd_DspAscII8x16+0xe4>
	INT16 i, j, k, x, y, xx;
	INT8U qm;
	INT32U ulOffset;
	INT8 ywbuf[16], temp[2];

	for (i = 0; i < strlen((const char*) s); i++) {
 c0034b0:	e15b31b6 	ldrh	r3, [fp, #-22]	; 0xffffffea
 c0034b4:	e2833001 	add	r3, r3, #1
 c0034b8:	e14b31b6 	strh	r3, [fp, #-22]	; 0xffffffea
 c0034bc:	e15b41f6 	ldrsh	r4, [fp, #-22]	; 0xffffffea
 c0034c0:	e51b0048 	ldr	r0, [fp, #-72]	; 0xffffffb8
 c0034c4:	eb000bf1 	bl	c006490 <strlen>
 c0034c8:	e1a03000 	mov	r3, r0
 c0034cc:	e1540003 	cmp	r4, r3
 c0034d0:	3affff4a 	bcc	c003200 <Lcd_DspAscII8x16+0x30>
					}
				}
			}
		}
	}
}
 c0034d4:	e24bd010 	sub	sp, fp, #16
 c0034d8:	e89d6810 	ldm	sp, {r4, fp, sp, lr}
 c0034dc:	e12fff1e 	bx	lr
 c0034e0:	0c006690 	.word	0x0c006690

0c0034e4 <ReverseLine>:
 *			ulY -- line's Y-coordinate
 * ret:		none
 * modify:
 * comment:
 *********************************************************************************************/
void ReverseLine(INT32U ulHeight, INT32U ulY) {
 c0034e4:	e1a0c00d 	mov	ip, sp
 c0034e8:	e92dd800 	push	{fp, ip, lr, pc}
 c0034ec:	e24cb004 	sub	fp, ip, #4
 c0034f0:	e24dd018 	sub	sp, sp, #24
 c0034f4:	e50b0020 	str	r0, [fp, #-32]	; 0xffffffe0
 c0034f8:	e50b1024 	str	r1, [fp, #-36]	; 0xffffffdc
	INT32U i, j, temp;

	for (i = 0; i < ulHeight; i++) {
 c0034fc:	e3a03000 	mov	r3, #0
 c003500:	e50b3010 	str	r3, [fp, #-16]
 c003504:	ea00002c 	b	c0035bc <ReverseLine+0xd8>
		for (j = 0; j < (SCR_XSIZE / 4 / 2); j++) {
 c003508:	e3a03000 	mov	r3, #0
 c00350c:	e50b3014 	str	r3, [fp, #-20]	; 0xffffffec
 c003510:	ea000023 	b	c0035a4 <ReverseLine+0xc0>
			temp = *(INT32U*) (LCD_VIRTUAL_BUFFER + (ulY + i) * SCR_XSIZE / 2
 c003514:	e51b2024 	ldr	r2, [fp, #-36]	; 0xffffffdc
 c003518:	e51b3010 	ldr	r3, [fp, #-16]
 c00351c:	e0822003 	add	r2, r2, r3
 c003520:	e1a03002 	mov	r3, r2
 c003524:	e1a03103 	lsl	r3, r3, #2
 c003528:	e0833002 	add	r3, r3, r2
 c00352c:	e1a03303 	lsl	r3, r3, #6
 c003530:	e1a020a3 	lsr	r2, r3, #1
					+ j * 4);
 c003534:	e51b3014 	ldr	r3, [fp, #-20]	; 0xffffffec
 c003538:	e1a03103 	lsl	r3, r3, #2
 c00353c:	e0823003 	add	r3, r2, r3
 c003540:	e28336c3 	add	r3, r3, #204472320	; 0xc300000
 c003544:	e2833c96 	add	r3, r3, #38400	; 0x9600
void ReverseLine(INT32U ulHeight, INT32U ulY) {
	INT32U i, j, temp;

	for (i = 0; i < ulHeight; i++) {
		for (j = 0; j < (SCR_XSIZE / 4 / 2); j++) {
			temp = *(INT32U*) (LCD_VIRTUAL_BUFFER + (ulY + i) * SCR_XSIZE / 2
 c003548:	e5933000 	ldr	r3, [r3]
 c00354c:	e50b3018 	str	r3, [fp, #-24]	; 0xffffffe8
					+ j * 4);
			temp ^= 0xFFFFFFFF;
 c003550:	e51b3018 	ldr	r3, [fp, #-24]	; 0xffffffe8
 c003554:	e1e03003 	mvn	r3, r3
 c003558:	e50b3018 	str	r3, [fp, #-24]	; 0xffffffe8
			*(INT32U*) (LCD_VIRTUAL_BUFFER + (ulY + i) * SCR_XSIZE / 2 + j * 4) =
 c00355c:	e51b2024 	ldr	r2, [fp, #-36]	; 0xffffffdc
 c003560:	e51b3010 	ldr	r3, [fp, #-16]
 c003564:	e0822003 	add	r2, r2, r3
 c003568:	e1a03002 	mov	r3, r2
 c00356c:	e1a03103 	lsl	r3, r3, #2
 c003570:	e0833002 	add	r3, r3, r2
 c003574:	e1a03303 	lsl	r3, r3, #6
 c003578:	e1a020a3 	lsr	r2, r3, #1
 c00357c:	e51b3014 	ldr	r3, [fp, #-20]	; 0xffffffec
 c003580:	e1a03103 	lsl	r3, r3, #2
 c003584:	e0823003 	add	r3, r2, r3
 c003588:	e28336c3 	add	r3, r3, #204472320	; 0xc300000
 c00358c:	e2833c96 	add	r3, r3, #38400	; 0x9600
 c003590:	e51b2018 	ldr	r2, [fp, #-24]	; 0xffffffe8
 c003594:	e5832000 	str	r2, [r3]
 *********************************************************************************************/
void ReverseLine(INT32U ulHeight, INT32U ulY) {
	INT32U i, j, temp;

	for (i = 0; i < ulHeight; i++) {
		for (j = 0; j < (SCR_XSIZE / 4 / 2); j++) {
 c003598:	e51b3014 	ldr	r3, [fp, #-20]	; 0xffffffec
 c00359c:	e2833001 	add	r3, r3, #1
 c0035a0:	e50b3014 	str	r3, [fp, #-20]	; 0xffffffec
 c0035a4:	e51b3014 	ldr	r3, [fp, #-20]	; 0xffffffec
 c0035a8:	e3530027 	cmp	r3, #39	; 0x27
 c0035ac:	9affffd8 	bls	c003514 <ReverseLine+0x30>
 * comment:
 *********************************************************************************************/
void ReverseLine(INT32U ulHeight, INT32U ulY) {
	INT32U i, j, temp;

	for (i = 0; i < ulHeight; i++) {
 c0035b0:	e51b3010 	ldr	r3, [fp, #-16]
 c0035b4:	e2833001 	add	r3, r3, #1
 c0035b8:	e50b3010 	str	r3, [fp, #-16]
 c0035bc:	e51b2010 	ldr	r2, [fp, #-16]
 c0035c0:	e51b3020 	ldr	r3, [fp, #-32]	; 0xffffffe0
 c0035c4:	e1520003 	cmp	r2, r3
 c0035c8:	3affffce 	bcc	c003508 <ReverseLine+0x24>
			temp ^= 0xFFFFFFFF;
			*(INT32U*) (LCD_VIRTUAL_BUFFER + (ulY + i) * SCR_XSIZE / 2 + j * 4) =
					temp;
		}
	}
}
 c0035cc:	e24bd00c 	sub	sp, fp, #12
 c0035d0:	e89d6800 	ldm	sp, {fp, sp, lr}
 c0035d4:	e12fff1e 	bx	lr

0c0035d8 <Zdma0Done>:
 * ret:		none
 * modify:
 * comment:
 *********************************************************************************************/
static INT8U ucZdma0Done = 1;//When DMA is finish,ucZdma0Done is cleared to Zero
void Zdma0Done(void) {
 c0035d8:	e52dc004 	push	{ip}		; (str ip, [sp, #-4]!)
 c0035dc:	e1a0c00d 	mov	ip, sp
 c0035e0:	e92dd80c 	push	{r2, r3, fp, ip, lr, pc}
 c0035e4:	e24cb004 	sub	fp, ip, #4
	rI_ISPC = BIT_ZDMA0;	    //clear pending
 c0035e8:	e59f3020 	ldr	r3, [pc, #32]	; c003610 <Zdma0Done+0x38>
 c0035ec:	e3a02702 	mov	r2, #524288	; 0x80000
 c0035f0:	e5832000 	str	r2, [r3]
	ucZdma0Done = 0;
 c0035f4:	e59f3018 	ldr	r3, [pc, #24]	; c003614 <Zdma0Done+0x3c>
 c0035f8:	e3a02000 	mov	r2, #0
 c0035fc:	e5c32000 	strb	r2, [r3]
}
 c003600:	e24bd014 	sub	sp, fp, #20
 c003604:	e89d680c 	ldm	sp, {r2, r3, fp, sp, lr}
 c003608:	e49dc004 	pop	{ip}		; (ldr ip, [sp], #4)
 c00360c:	e25ef004 	subs	pc, lr, #4
 c003610:	01e00024 	.word	0x01e00024
 c003614:	0c00655c 	.word	0x0c00655c

0c003618 <Lcd_Dma_Trans>:
 * para:		none
 * ret:		none
 * modify:
 * comment:
 *********************************************************************************************/
void Lcd_Dma_Trans(void) {
 c003618:	e1a0c00d 	mov	ip, sp
 c00361c:	e92dd800 	push	{fp, ip, lr, pc}
 c003620:	e24cb004 	sub	fp, ip, #4
	INT8U err;

	ucZdma0Done = 1;
 c003624:	e59f3074 	ldr	r3, [pc, #116]	; c0036a0 <Lcd_Dma_Trans+0x88>
 c003628:	e3a02001 	mov	r2, #1
 c00362c:	e5c32000 	strb	r2, [r3]
	//#define LCD_VIRTUAL_BUFFER	(0xc400000)
	//#define LCD_ACTIVE_BUFFER	(LCD_VIRTUAL_BUFFER+(SCR_XSIZE*SCR_YSIZE/2))	//DMA ON
	//#define LCD_ACTIVE_BUFFER	LCD_VIRTUAL_BUFFER								//DMA OFF
	//#define LCD_BUF_SIZE		(SCR_XSIZE*SCR_YSIZE/2)
	//So the Lcd Buffer Low area is from LCD_VIRTUAL_BUFFER to (LCD_ACTIVE_BUFFER+(SCR_XSIZE*SCR_YSIZE/2))
	rNCACHBE1 = (((unsigned) (LCD_ACTIVE_BUFFER) >> 12) << 16)
 c003630:	e59f306c 	ldr	r3, [pc, #108]	; c0036a4 <Lcd_Dma_Trans+0x8c>
 c003634:	e59f206c 	ldr	r2, [pc, #108]	; c0036a8 <Lcd_Dma_Trans+0x90>
 c003638:	e5832000 	str	r2, [r3]
			| ((unsigned) (LCD_VIRTUAL_BUFFER) >> 12);
	rZDISRC0 = (DW << 30) | (1 << 28) | LCD_VIRTUAL_BUFFER; // inc
 c00363c:	e59f3068 	ldr	r3, [pc, #104]	; c0036ac <Lcd_Dma_Trans+0x94>
 c003640:	e59f2068 	ldr	r2, [pc, #104]	; c0036b0 <Lcd_Dma_Trans+0x98>
 c003644:	e5832000 	str	r2, [r3]
	rZDIDES0 = (2 << 30) | (1 << 28) | LCD_ACTIVE_BUFFER; // inc
 c003648:	e59f3064 	ldr	r3, [pc, #100]	; c0036b4 <Lcd_Dma_Trans+0x9c>
 c00364c:	e59f2064 	ldr	r2, [pc, #100]	; c0036b8 <Lcd_Dma_Trans+0xa0>
 c003650:	e5832000 	str	r2, [r3]
	rZDICNT0 = (2 << 28) | (1 << 26) | (3 << 22) | (0 << 20) | (LCD_BUF_SIZE);
 c003654:	e59f3060 	ldr	r3, [pc, #96]	; c0036bc <Lcd_Dma_Trans+0xa4>
 c003658:	e59f2060 	ldr	r2, [pc, #96]	; c0036c0 <Lcd_Dma_Trans+0xa8>
 c00365c:	e5832000 	str	r2, [r3]
	//                      |            |            |             |------------>Int. whenever transferred
	//                      |            |            |-------------------->Write time on the fly
	//                      |            |---------------------------->Block(4-word) transfer mode
	//                      |------------------------------------>whole service
	//reEnable ZDMA transfer
	rZDICNT0 |= (1 << 20);		//after ES3
 c003660:	e59f3054 	ldr	r3, [pc, #84]	; c0036bc <Lcd_Dma_Trans+0xa4>
 c003664:	e59f2050 	ldr	r2, [pc, #80]	; c0036bc <Lcd_Dma_Trans+0xa4>
 c003668:	e5922000 	ldr	r2, [r2]
 c00366c:	e3822601 	orr	r2, r2, #1048576	; 0x100000
 c003670:	e5832000 	str	r2, [r3]
	rZDCON0 = 0x1; // start!!!
 c003674:	e3a0377a 	mov	r3, #31981568	; 0x1e80000
 c003678:	e3a02001 	mov	r2, #1
 c00367c:	e5832000 	str	r2, [r3]

	//Delay(500);
	while (ucZdma0Done)
 c003680:	e1a00000 	nop			; (mov r0, r0)
 c003684:	e59f3014 	ldr	r3, [pc, #20]	; c0036a0 <Lcd_Dma_Trans+0x88>
 c003688:	e5d33000 	ldrb	r3, [r3]
 c00368c:	e3530000 	cmp	r3, #0
 c003690:	1afffffb 	bne	c003684 <Lcd_Dma_Trans+0x6c>
		;		//wait for DMA finish
}
 c003694:	e24bd00c 	sub	sp, fp, #12
 c003698:	e89d6800 	ldm	sp, {fp, sp, lr}
 c00369c:	e12fff1e 	bx	lr
 c0036a0:	0c00655c 	.word	0x0c00655c
 c0036a4:	01c00008 	.word	0x01c00008
 c0036a8:	c300c309 	.word	0xc300c309
 c0036ac:	01e80004 	.word	0x01e80004
 c0036b0:	1c309600 	.word	0x1c309600
 c0036b4:	01e80008 	.word	0x01e80008
 c0036b8:	9c300000 	.word	0x9c300000
 c0036bc:	01e8000c 	.word	0x01e8000c
 c0036c0:	24c09600 	.word	0x24c09600

0c0036c4 <Lcd_Test>:
 * para:		none
 * ret:		none
 * modify:
 * comment:
 *********************************************************************************************/
void Lcd_Test(void) {
 c0036c4:	e1a0c00d 	mov	ip, sp
 c0036c8:	e92dd800 	push	{fp, ip, lr, pc}
 c0036cc:	e24cb004 	sub	fp, ip, #4
 c0036d0:	e24dd008 	sub	sp, sp, #8
	/* initial LCD controller */
	Lcd_Init();
 c0036d4:	ebfff8a7 	bl	c001978 <Lcd_Init>
	/* clear screen */
	Lcd_Clr();
 c0036d8:	ebfff959 	bl	c001c44 <Lcd_Clr>
	Lcd_Active_Clr();
 c0036dc:	ebfff90a 	bl	c001b0c <Lcd_Active_Clr>
#ifdef Eng_v // english version
	Lcd_DspAscII8x16(10,0,DARKGRAY,"Embest S3CEV40 ");
#else
//	Lcd_DspHz16(10,0,DARKGRAY,"Y?yD???1?");
#endif
	Lcd_DspAscII8x16(10, 20, BLACK, "Codigo del puesto: ");
 c0036e0:	e3a0000a 	mov	r0, #10
 c0036e4:	e3a01014 	mov	r1, #20
 c0036e8:	e3a0200f 	mov	r2, #15
 c0036ec:	e59f31a0 	ldr	r3, [pc, #416]	; c003894 <Lcd_Test+0x1d0>
 c0036f0:	ebfffeb6 	bl	c0031d0 <Lcd_DspAscII8x16>
	Lcd_Draw_Box(10, 40, 310, 230, 14);
 c0036f4:	e3a0300e 	mov	r3, #14
 c0036f8:	e58d3000 	str	r3, [sp]
 c0036fc:	e3a0000a 	mov	r0, #10
 c003700:	e3a01028 	mov	r1, #40	; 0x28
 c003704:	e59f218c 	ldr	r2, [pc, #396]	; c003898 <Lcd_Test+0x1d4>
 c003708:	e3a030e6 	mov	r3, #230	; 0xe6
 c00370c:	ebfffafb 	bl	c002300 <Lcd_Draw_Box>
	Lcd_Draw_Box(20, 45, 300, 225, 13);
 c003710:	e3a0300d 	mov	r3, #13
 c003714:	e58d3000 	str	r3, [sp]
 c003718:	e3a00014 	mov	r0, #20
 c00371c:	e3a0102d 	mov	r1, #45	; 0x2d
 c003720:	e3a02f4b 	mov	r2, #300	; 0x12c
 c003724:	e3a030e1 	mov	r3, #225	; 0xe1
 c003728:	ebfffaf4 	bl	c002300 <Lcd_Draw_Box>
	Lcd_Draw_Box(30, 50, 290, 220, 12);
 c00372c:	e3a0300c 	mov	r3, #12
 c003730:	e58d3000 	str	r3, [sp]
 c003734:	e3a0001e 	mov	r0, #30
 c003738:	e3a01032 	mov	r1, #50	; 0x32
 c00373c:	e59f2158 	ldr	r2, [pc, #344]	; c00389c <Lcd_Test+0x1d8>
 c003740:	e3a030dc 	mov	r3, #220	; 0xdc
 c003744:	ebfffaed 	bl	c002300 <Lcd_Draw_Box>
	Lcd_Draw_Box(40, 55, 280, 215, 11);
 c003748:	e3a0300b 	mov	r3, #11
 c00374c:	e58d3000 	str	r3, [sp]
 c003750:	e3a00028 	mov	r0, #40	; 0x28
 c003754:	e3a01037 	mov	r1, #55	; 0x37
 c003758:	e3a02f46 	mov	r2, #280	; 0x118
 c00375c:	e3a030d7 	mov	r3, #215	; 0xd7
 c003760:	ebfffae6 	bl	c002300 <Lcd_Draw_Box>
	Lcd_Draw_Box(50, 60, 270, 210, 10);
 c003764:	e3a0300a 	mov	r3, #10
 c003768:	e58d3000 	str	r3, [sp]
 c00376c:	e3a00032 	mov	r0, #50	; 0x32
 c003770:	e3a0103c 	mov	r1, #60	; 0x3c
 c003774:	e59f2124 	ldr	r2, [pc, #292]	; c0038a0 <Lcd_Test+0x1dc>
 c003778:	e3a030d2 	mov	r3, #210	; 0xd2
 c00377c:	ebfffadf 	bl	c002300 <Lcd_Draw_Box>
	Lcd_Draw_Box(60, 65, 260, 205, 9);
 c003780:	e3a03009 	mov	r3, #9
 c003784:	e58d3000 	str	r3, [sp]
 c003788:	e3a0003c 	mov	r0, #60	; 0x3c
 c00378c:	e3a01041 	mov	r1, #65	; 0x41
 c003790:	e3a02f41 	mov	r2, #260	; 0x104
 c003794:	e3a030cd 	mov	r3, #205	; 0xcd
 c003798:	ebfffad8 	bl	c002300 <Lcd_Draw_Box>
	Lcd_Draw_Box(70, 70, 250, 200, 8);
 c00379c:	e3a03008 	mov	r3, #8
 c0037a0:	e58d3000 	str	r3, [sp]
 c0037a4:	e3a00046 	mov	r0, #70	; 0x46
 c0037a8:	e3a01046 	mov	r1, #70	; 0x46
 c0037ac:	e3a020fa 	mov	r2, #250	; 0xfa
 c0037b0:	e3a030c8 	mov	r3, #200	; 0xc8
 c0037b4:	ebfffad1 	bl	c002300 <Lcd_Draw_Box>
	Lcd_Draw_Box(80, 75, 240, 195, 7);
 c0037b8:	e3a03007 	mov	r3, #7
 c0037bc:	e58d3000 	str	r3, [sp]
 c0037c0:	e3a00050 	mov	r0, #80	; 0x50
 c0037c4:	e3a0104b 	mov	r1, #75	; 0x4b
 c0037c8:	e3a020f0 	mov	r2, #240	; 0xf0
 c0037cc:	e3a030c3 	mov	r3, #195	; 0xc3
 c0037d0:	ebfffaca 	bl	c002300 <Lcd_Draw_Box>
	Lcd_Draw_Box(90, 80, 230, 190, 6);
 c0037d4:	e3a03006 	mov	r3, #6
 c0037d8:	e58d3000 	str	r3, [sp]
 c0037dc:	e3a0005a 	mov	r0, #90	; 0x5a
 c0037e0:	e3a01050 	mov	r1, #80	; 0x50
 c0037e4:	e3a020e6 	mov	r2, #230	; 0xe6
 c0037e8:	e3a030be 	mov	r3, #190	; 0xbe
 c0037ec:	ebfffac3 	bl	c002300 <Lcd_Draw_Box>
	Lcd_Draw_Box(100, 85, 220, 185, 5);
 c0037f0:	e3a03005 	mov	r3, #5
 c0037f4:	e58d3000 	str	r3, [sp]
 c0037f8:	e3a00064 	mov	r0, #100	; 0x64
 c0037fc:	e3a01055 	mov	r1, #85	; 0x55
 c003800:	e3a020dc 	mov	r2, #220	; 0xdc
 c003804:	e3a030b9 	mov	r3, #185	; 0xb9
 c003808:	ebfffabc 	bl	c002300 <Lcd_Draw_Box>
	Lcd_Draw_Box(110, 90, 210, 180, 4);
 c00380c:	e3a03004 	mov	r3, #4
 c003810:	e58d3000 	str	r3, [sp]
 c003814:	e3a0006e 	mov	r0, #110	; 0x6e
 c003818:	e3a0105a 	mov	r1, #90	; 0x5a
 c00381c:	e3a020d2 	mov	r2, #210	; 0xd2
 c003820:	e3a030b4 	mov	r3, #180	; 0xb4
 c003824:	ebfffab5 	bl	c002300 <Lcd_Draw_Box>
	Lcd_Draw_Box(120, 95, 200, 175, 3);
 c003828:	e3a03003 	mov	r3, #3
 c00382c:	e58d3000 	str	r3, [sp]
 c003830:	e3a00078 	mov	r0, #120	; 0x78
 c003834:	e3a0105f 	mov	r1, #95	; 0x5f
 c003838:	e3a020c8 	mov	r2, #200	; 0xc8
 c00383c:	e3a030af 	mov	r3, #175	; 0xaf
 c003840:	ebfffaae 	bl	c002300 <Lcd_Draw_Box>
	Lcd_Draw_Box(130, 100, 190, 170, 2);
 c003844:	e3a03002 	mov	r3, #2
 c003848:	e58d3000 	str	r3, [sp]
 c00384c:	e3a00082 	mov	r0, #130	; 0x82
 c003850:	e3a01064 	mov	r1, #100	; 0x64
 c003854:	e3a020be 	mov	r2, #190	; 0xbe
 c003858:	e3a030aa 	mov	r3, #170	; 0xaa
 c00385c:	ebfffaa7 	bl	c002300 <Lcd_Draw_Box>
	BitmapView(125, 135, Stru_Bitmap_gbMouse);
 c003860:	e59f303c 	ldr	r3, [pc, #60]	; c0038a4 <Lcd_Test+0x1e0>
 c003864:	e1a0200d 	mov	r2, sp
 c003868:	e2831008 	add	r1, r3, #8
 c00386c:	e8910003 	ldm	r1, {r0, r1}
 c003870:	e8820003 	stm	r2, {r0, r1}
 c003874:	e893000c 	ldm	r3, {r2, r3}
 c003878:	e3a0007d 	mov	r0, #125	; 0x7d
 c00387c:	e3a01087 	mov	r1, #135	; 0x87
 c003880:	ebfff546 	bl	c000da0 <BitmapView>
	Lcd_Dma_Trans();
 c003884:	ebffff63 	bl	c003618 <Lcd_Dma_Trans>

}
 c003888:	e24bd00c 	sub	sp, fp, #12
 c00388c:	e89d6800 	ldm	sp, {fp, sp, lr}
 c003890:	e12fff1e 	bx	lr
 c003894:	0c007784 	.word	0x0c007784
 c003898:	00000136 	.word	0x00000136
 c00389c:	00000122 	.word	0x00000122
 c0038a0:	0000010e 	.word	0x0000010e
 c0038a4:	0c00654c 	.word	0x0c00654c

0c0038a8 <Lcd_InitTablero>:

/**
 * Inicializa el lcd y pinta los tiempos, tablero y leyenda en pantalla
 */
void Lcd_InitTablero(void) {
 c0038a8:	e1a0c00d 	mov	ip, sp
 c0038ac:	e92dd800 	push	{fp, ip, lr, pc}
 c0038b0:	e24cb004 	sub	fp, ip, #4
 c0038b4:	e24dd008 	sub	sp, sp, #8
	/* initial LCD controller */
	Lcd_Init();
 c0038b8:	ebfff82e 	bl	c001978 <Lcd_Init>
	/* clear screen */
	Lcd_Clr();
 c0038bc:	ebfff8e0 	bl	c001c44 <Lcd_Clr>
	Lcd_Active_Clr();
 c0038c0:	ebfff891 	bl	c001b0c <Lcd_Active_Clr>
	Lcd_DspAscII8x16(10,0,DARKGRAY,"Embest S3CEV40 ");
#else
//	Lcd_DspHz16(10,0,DARKGRAY,"Y?yD???1?");
#endif
	// Tiempos
	Lcd_DspAscII8x16(0, 0, BLACK, "Tiempo total: ");
 c0038c4:	e3a00000 	mov	r0, #0
 c0038c8:	e3a01000 	mov	r1, #0
 c0038cc:	e3a0200f 	mov	r2, #15
 c0038d0:	e59f3290 	ldr	r3, [pc, #656]	; c003b68 <Lcd_InitTablero+0x2c0>
 c0038d4:	ebfffe3d 	bl	c0031d0 <Lcd_DspAscII8x16>
	Lcd_DspAscII8x16(148, 0, BLACK, "Tiempo calculos: ");
 c0038d8:	e3a00094 	mov	r0, #148	; 0x94
 c0038dc:	e3a01000 	mov	r1, #0
 c0038e0:	e3a0200f 	mov	r2, #15
 c0038e4:	e59f3280 	ldr	r3, [pc, #640]	; c003b6c <Lcd_InitTablero+0x2c4>
 c0038e8:	ebfffe38 	bl	c0031d0 <Lcd_DspAscII8x16>
	Lcd_DspAscII8x16(105, 0, BLACK, "0");
 c0038ec:	e3a00069 	mov	r0, #105	; 0x69
 c0038f0:	e3a01000 	mov	r1, #0
 c0038f4:	e3a0200f 	mov	r2, #15
 c0038f8:	e59f3270 	ldr	r3, [pc, #624]	; c003b70 <Lcd_InitTablero+0x2c8>
 c0038fc:	ebfffe33 	bl	c0031d0 <Lcd_DspAscII8x16>
	Lcd_DspAscII8x16(276, 0, BLACK, "0");
 c003900:	e3a00f45 	mov	r0, #276	; 0x114
 c003904:	e3a01000 	mov	r1, #0
 c003908:	e3a0200f 	mov	r2, #15
 c00390c:	e59f325c 	ldr	r3, [pc, #604]	; c003b70 <Lcd_InitTablero+0x2c8>
 c003910:	ebfffe2e 	bl	c0031d0 <Lcd_DspAscII8x16>

	// Tablero 210x210
	// Horizontales
	Lcd_Draw_HLine(54, 264, 15, 14, 3);
 c003914:	e3a03003 	mov	r3, #3
 c003918:	e58d3000 	str	r3, [sp]
 c00391c:	e3a00036 	mov	r0, #54	; 0x36
 c003920:	e3a01f42 	mov	r1, #264	; 0x108
 c003924:	e3a0200f 	mov	r2, #15
 c003928:	e3a0300e 	mov	r3, #14
 c00392c:	ebfffd17 	bl	c002d90 <Lcd_Draw_HLine>
	Lcd_Draw_HLine(54, 264, 38.33, 14, 1);
 c003930:	e3a03001 	mov	r3, #1
 c003934:	e58d3000 	str	r3, [sp]
 c003938:	e3a00036 	mov	r0, #54	; 0x36
 c00393c:	e3a01f42 	mov	r1, #264	; 0x108
 c003940:	e3a02026 	mov	r2, #38	; 0x26
 c003944:	e3a0300e 	mov	r3, #14
 c003948:	ebfffd10 	bl	c002d90 <Lcd_Draw_HLine>
	Lcd_Draw_HLine(54, 264, 61.66, 14, 1);
 c00394c:	e3a03001 	mov	r3, #1
 c003950:	e58d3000 	str	r3, [sp]
 c003954:	e3a00036 	mov	r0, #54	; 0x36
 c003958:	e3a01f42 	mov	r1, #264	; 0x108
 c00395c:	e3a0203d 	mov	r2, #61	; 0x3d
 c003960:	e3a0300e 	mov	r3, #14
 c003964:	ebfffd09 	bl	c002d90 <Lcd_Draw_HLine>
	Lcd_Draw_HLine(54, 264, 84.99, 14, 3);
 c003968:	e3a03003 	mov	r3, #3
 c00396c:	e58d3000 	str	r3, [sp]
 c003970:	e3a00036 	mov	r0, #54	; 0x36
 c003974:	e3a01f42 	mov	r1, #264	; 0x108
 c003978:	e3a02054 	mov	r2, #84	; 0x54
 c00397c:	e3a0300e 	mov	r3, #14
 c003980:	ebfffd02 	bl	c002d90 <Lcd_Draw_HLine>
	Lcd_Draw_HLine(54, 264, 108.32, 14, 1);
 c003984:	e3a03001 	mov	r3, #1
 c003988:	e58d3000 	str	r3, [sp]
 c00398c:	e3a00036 	mov	r0, #54	; 0x36
 c003990:	e3a01f42 	mov	r1, #264	; 0x108
 c003994:	e3a0206c 	mov	r2, #108	; 0x6c
 c003998:	e3a0300e 	mov	r3, #14
 c00399c:	ebfffcfb 	bl	c002d90 <Lcd_Draw_HLine>
	Lcd_Draw_HLine(54, 264, 131.65, 14, 1);
 c0039a0:	e3a03001 	mov	r3, #1
 c0039a4:	e58d3000 	str	r3, [sp]
 c0039a8:	e3a00036 	mov	r0, #54	; 0x36
 c0039ac:	e3a01f42 	mov	r1, #264	; 0x108
 c0039b0:	e3a02083 	mov	r2, #131	; 0x83
 c0039b4:	e3a0300e 	mov	r3, #14
 c0039b8:	ebfffcf4 	bl	c002d90 <Lcd_Draw_HLine>
	Lcd_Draw_HLine(54, 264, 154.98, 14, 3);
 c0039bc:	e3a03003 	mov	r3, #3
 c0039c0:	e58d3000 	str	r3, [sp]
 c0039c4:	e3a00036 	mov	r0, #54	; 0x36
 c0039c8:	e3a01f42 	mov	r1, #264	; 0x108
 c0039cc:	e3a0209a 	mov	r2, #154	; 0x9a
 c0039d0:	e3a0300e 	mov	r3, #14
 c0039d4:	ebfffced 	bl	c002d90 <Lcd_Draw_HLine>
	Lcd_Draw_HLine(54, 264, 178.31, 14, 1);
 c0039d8:	e3a03001 	mov	r3, #1
 c0039dc:	e58d3000 	str	r3, [sp]
 c0039e0:	e3a00036 	mov	r0, #54	; 0x36
 c0039e4:	e3a01f42 	mov	r1, #264	; 0x108
 c0039e8:	e3a020b2 	mov	r2, #178	; 0xb2
 c0039ec:	e3a0300e 	mov	r3, #14
 c0039f0:	ebfffce6 	bl	c002d90 <Lcd_Draw_HLine>
	Lcd_Draw_HLine(54, 264, 201.64, 14, 1);
 c0039f4:	e3a03001 	mov	r3, #1
 c0039f8:	e58d3000 	str	r3, [sp]
 c0039fc:	e3a00036 	mov	r0, #54	; 0x36
 c003a00:	e3a01f42 	mov	r1, #264	; 0x108
 c003a04:	e3a020c9 	mov	r2, #201	; 0xc9
 c003a08:	e3a0300e 	mov	r3, #14
 c003a0c:	ebfffcdf 	bl	c002d90 <Lcd_Draw_HLine>
	Lcd_Draw_HLine(54, 264, 224, 14, 3);
 c003a10:	e3a03003 	mov	r3, #3
 c003a14:	e58d3000 	str	r3, [sp]
 c003a18:	e3a00036 	mov	r0, #54	; 0x36
 c003a1c:	e3a01f42 	mov	r1, #264	; 0x108
 c003a20:	e3a020e0 	mov	r2, #224	; 0xe0
 c003a24:	e3a0300e 	mov	r3, #14
 c003a28:	ebfffcd8 	bl	c002d90 <Lcd_Draw_HLine>

	// Verticales
	Lcd_Draw_VLine(15, 224, 54, 14, 3);
 c003a2c:	e3a03003 	mov	r3, #3
 c003a30:	e58d3000 	str	r3, [sp]
 c003a34:	e3a0000f 	mov	r0, #15
 c003a38:	e3a010e0 	mov	r1, #224	; 0xe0
 c003a3c:	e3a02036 	mov	r2, #54	; 0x36
 c003a40:	e3a0300e 	mov	r3, #14
 c003a44:	ebfffd53 	bl	c002f98 <Lcd_Draw_VLine>
	Lcd_Draw_VLine(15, 224, 77.33, 14, 1);
 c003a48:	e3a03001 	mov	r3, #1
 c003a4c:	e58d3000 	str	r3, [sp]
 c003a50:	e3a0000f 	mov	r0, #15
 c003a54:	e3a010e0 	mov	r1, #224	; 0xe0
 c003a58:	e3a0204d 	mov	r2, #77	; 0x4d
 c003a5c:	e3a0300e 	mov	r3, #14
 c003a60:	ebfffd4c 	bl	c002f98 <Lcd_Draw_VLine>
	Lcd_Draw_VLine(15, 224, 100.66, 14, 1);
 c003a64:	e3a03001 	mov	r3, #1
 c003a68:	e58d3000 	str	r3, [sp]
 c003a6c:	e3a0000f 	mov	r0, #15
 c003a70:	e3a010e0 	mov	r1, #224	; 0xe0
 c003a74:	e3a02064 	mov	r2, #100	; 0x64
 c003a78:	e3a0300e 	mov	r3, #14
 c003a7c:	ebfffd45 	bl	c002f98 <Lcd_Draw_VLine>
	Lcd_Draw_VLine(15, 224, 123.99, 14, 3);
 c003a80:	e3a03003 	mov	r3, #3
 c003a84:	e58d3000 	str	r3, [sp]
 c003a88:	e3a0000f 	mov	r0, #15
 c003a8c:	e3a010e0 	mov	r1, #224	; 0xe0
 c003a90:	e3a0207b 	mov	r2, #123	; 0x7b
 c003a94:	e3a0300e 	mov	r3, #14
 c003a98:	ebfffd3e 	bl	c002f98 <Lcd_Draw_VLine>
	Lcd_Draw_VLine(15, 224, 147.32, 14, 1);
 c003a9c:	e3a03001 	mov	r3, #1
 c003aa0:	e58d3000 	str	r3, [sp]
 c003aa4:	e3a0000f 	mov	r0, #15
 c003aa8:	e3a010e0 	mov	r1, #224	; 0xe0
 c003aac:	e3a02093 	mov	r2, #147	; 0x93
 c003ab0:	e3a0300e 	mov	r3, #14
 c003ab4:	ebfffd37 	bl	c002f98 <Lcd_Draw_VLine>
	Lcd_Draw_VLine(15, 224, 170.65, 14, 1);
 c003ab8:	e3a03001 	mov	r3, #1
 c003abc:	e58d3000 	str	r3, [sp]
 c003ac0:	e3a0000f 	mov	r0, #15
 c003ac4:	e3a010e0 	mov	r1, #224	; 0xe0
 c003ac8:	e3a020aa 	mov	r2, #170	; 0xaa
 c003acc:	e3a0300e 	mov	r3, #14
 c003ad0:	ebfffd30 	bl	c002f98 <Lcd_Draw_VLine>
	Lcd_Draw_VLine(15, 224, 193.98, 14, 3);
 c003ad4:	e3a03003 	mov	r3, #3
 c003ad8:	e58d3000 	str	r3, [sp]
 c003adc:	e3a0000f 	mov	r0, #15
 c003ae0:	e3a010e0 	mov	r1, #224	; 0xe0
 c003ae4:	e3a020c1 	mov	r2, #193	; 0xc1
 c003ae8:	e3a0300e 	mov	r3, #14
 c003aec:	ebfffd29 	bl	c002f98 <Lcd_Draw_VLine>
	Lcd_Draw_VLine(15, 224, 217.31, 14, 1);
 c003af0:	e3a03001 	mov	r3, #1
 c003af4:	e58d3000 	str	r3, [sp]
 c003af8:	e3a0000f 	mov	r0, #15
 c003afc:	e3a010e0 	mov	r1, #224	; 0xe0
 c003b00:	e3a020d9 	mov	r2, #217	; 0xd9
 c003b04:	e3a0300e 	mov	r3, #14
 c003b08:	ebfffd22 	bl	c002f98 <Lcd_Draw_VLine>
	Lcd_Draw_VLine(15, 224, 240.64, 14, 1);
 c003b0c:	e3a03001 	mov	r3, #1
 c003b10:	e58d3000 	str	r3, [sp]
 c003b14:	e3a0000f 	mov	r0, #15
 c003b18:	e3a010e0 	mov	r1, #224	; 0xe0
 c003b1c:	e3a020f0 	mov	r2, #240	; 0xf0
 c003b20:	e3a0300e 	mov	r3, #14
 c003b24:	ebfffd1b 	bl	c002f98 <Lcd_Draw_VLine>
	Lcd_Draw_VLine(15, 224, 264, 14, 3);
 c003b28:	e3a03003 	mov	r3, #3
 c003b2c:	e58d3000 	str	r3, [sp]
 c003b30:	e3a0000f 	mov	r0, #15
 c003b34:	e3a010e0 	mov	r1, #224	; 0xe0
 c003b38:	e3a02f42 	mov	r2, #264	; 0x108
 c003b3c:	e3a0300e 	mov	r3, #14
 c003b40:	ebfffd14 	bl	c002f98 <Lcd_Draw_VLine>

	// Leyenda
	Lcd_DspAscII8x16(5, 227, BLACK, "*Introduzca fila A para acabar partida*");
 c003b44:	e3a00005 	mov	r0, #5
 c003b48:	e3a010e3 	mov	r1, #227	; 0xe3
 c003b4c:	e3a0200f 	mov	r2, #15
 c003b50:	e59f301c 	ldr	r3, [pc, #28]	; c003b74 <Lcd_InitTablero+0x2cc>
 c003b54:	ebfffd9d 	bl	c0031d0 <Lcd_DspAscII8x16>
	Lcd_Dma_Trans();
 c003b58:	ebfffeae 	bl	c003618 <Lcd_Dma_Trans>
}
 c003b5c:	e24bd00c 	sub	sp, fp, #12
 c003b60:	e89d6800 	ldm	sp, {fp, sp, lr}
 c003b64:	e12fff1e 	bx	lr
 c003b68:	0c007798 	.word	0x0c007798
 c003b6c:	0c0077a8 	.word	0x0c0077a8
 c003b70:	0c0077bc 	.word	0x0c0077bc
 c003b74:	0c0077c0 	.word	0x0c0077c0

0c003b78 <Lcd_PintarLineas>:

/**
 * Pinta las lineas del sudoku en el lcd
 */
void Lcd_PintarLineas(void) {
 c003b78:	e1a0c00d 	mov	ip, sp
 c003b7c:	e92dd800 	push	{fp, ip, lr, pc}
 c003b80:	e24cb004 	sub	fp, ip, #4
 c003b84:	e24dd008 	sub	sp, sp, #8
	Lcd_Draw_HLine(54, 264, 15, 14, 3);
 c003b88:	e3a03003 	mov	r3, #3
 c003b8c:	e58d3000 	str	r3, [sp]
 c003b90:	e3a00036 	mov	r0, #54	; 0x36
 c003b94:	e3a01f42 	mov	r1, #264	; 0x108
 c003b98:	e3a0200f 	mov	r2, #15
 c003b9c:	e3a0300e 	mov	r3, #14
 c003ba0:	ebfffc7a 	bl	c002d90 <Lcd_Draw_HLine>
	Lcd_Draw_HLine(54, 264, 38.33, 14, 1);
 c003ba4:	e3a03001 	mov	r3, #1
 c003ba8:	e58d3000 	str	r3, [sp]
 c003bac:	e3a00036 	mov	r0, #54	; 0x36
 c003bb0:	e3a01f42 	mov	r1, #264	; 0x108
 c003bb4:	e3a02026 	mov	r2, #38	; 0x26
 c003bb8:	e3a0300e 	mov	r3, #14
 c003bbc:	ebfffc73 	bl	c002d90 <Lcd_Draw_HLine>
	Lcd_Draw_HLine(54, 264, 61.66, 14, 1);
 c003bc0:	e3a03001 	mov	r3, #1
 c003bc4:	e58d3000 	str	r3, [sp]
 c003bc8:	e3a00036 	mov	r0, #54	; 0x36
 c003bcc:	e3a01f42 	mov	r1, #264	; 0x108
 c003bd0:	e3a0203d 	mov	r2, #61	; 0x3d
 c003bd4:	e3a0300e 	mov	r3, #14
 c003bd8:	ebfffc6c 	bl	c002d90 <Lcd_Draw_HLine>
	Lcd_Draw_HLine(54, 264, 84.99, 14, 3);
 c003bdc:	e3a03003 	mov	r3, #3
 c003be0:	e58d3000 	str	r3, [sp]
 c003be4:	e3a00036 	mov	r0, #54	; 0x36
 c003be8:	e3a01f42 	mov	r1, #264	; 0x108
 c003bec:	e3a02054 	mov	r2, #84	; 0x54
 c003bf0:	e3a0300e 	mov	r3, #14
 c003bf4:	ebfffc65 	bl	c002d90 <Lcd_Draw_HLine>
	Lcd_Draw_HLine(54, 264, 108.32, 14, 1);
 c003bf8:	e3a03001 	mov	r3, #1
 c003bfc:	e58d3000 	str	r3, [sp]
 c003c00:	e3a00036 	mov	r0, #54	; 0x36
 c003c04:	e3a01f42 	mov	r1, #264	; 0x108
 c003c08:	e3a0206c 	mov	r2, #108	; 0x6c
 c003c0c:	e3a0300e 	mov	r3, #14
 c003c10:	ebfffc5e 	bl	c002d90 <Lcd_Draw_HLine>
	Lcd_Draw_HLine(54, 264, 131.65, 14, 1);
 c003c14:	e3a03001 	mov	r3, #1
 c003c18:	e58d3000 	str	r3, [sp]
 c003c1c:	e3a00036 	mov	r0, #54	; 0x36
 c003c20:	e3a01f42 	mov	r1, #264	; 0x108
 c003c24:	e3a02083 	mov	r2, #131	; 0x83
 c003c28:	e3a0300e 	mov	r3, #14
 c003c2c:	ebfffc57 	bl	c002d90 <Lcd_Draw_HLine>
	Lcd_Draw_HLine(54, 264, 154.98, 14, 3);
 c003c30:	e3a03003 	mov	r3, #3
 c003c34:	e58d3000 	str	r3, [sp]
 c003c38:	e3a00036 	mov	r0, #54	; 0x36
 c003c3c:	e3a01f42 	mov	r1, #264	; 0x108
 c003c40:	e3a0209a 	mov	r2, #154	; 0x9a
 c003c44:	e3a0300e 	mov	r3, #14
 c003c48:	ebfffc50 	bl	c002d90 <Lcd_Draw_HLine>
	Lcd_Draw_HLine(54, 264, 178.31, 14, 1);
 c003c4c:	e3a03001 	mov	r3, #1
 c003c50:	e58d3000 	str	r3, [sp]
 c003c54:	e3a00036 	mov	r0, #54	; 0x36
 c003c58:	e3a01f42 	mov	r1, #264	; 0x108
 c003c5c:	e3a020b2 	mov	r2, #178	; 0xb2
 c003c60:	e3a0300e 	mov	r3, #14
 c003c64:	ebfffc49 	bl	c002d90 <Lcd_Draw_HLine>
	Lcd_Draw_HLine(54, 264, 201.64, 14, 1);
 c003c68:	e3a03001 	mov	r3, #1
 c003c6c:	e58d3000 	str	r3, [sp]
 c003c70:	e3a00036 	mov	r0, #54	; 0x36
 c003c74:	e3a01f42 	mov	r1, #264	; 0x108
 c003c78:	e3a020c9 	mov	r2, #201	; 0xc9
 c003c7c:	e3a0300e 	mov	r3, #14
 c003c80:	ebfffc42 	bl	c002d90 <Lcd_Draw_HLine>
	Lcd_Draw_HLine(54, 264, 224, 14, 3);
 c003c84:	e3a03003 	mov	r3, #3
 c003c88:	e58d3000 	str	r3, [sp]
 c003c8c:	e3a00036 	mov	r0, #54	; 0x36
 c003c90:	e3a01f42 	mov	r1, #264	; 0x108
 c003c94:	e3a020e0 	mov	r2, #224	; 0xe0
 c003c98:	e3a0300e 	mov	r3, #14
 c003c9c:	ebfffc3b 	bl	c002d90 <Lcd_Draw_HLine>
	// Verticales
	Lcd_Draw_VLine(15, 224, 54, 14, 3);
 c003ca0:	e3a03003 	mov	r3, #3
 c003ca4:	e58d3000 	str	r3, [sp]
 c003ca8:	e3a0000f 	mov	r0, #15
 c003cac:	e3a010e0 	mov	r1, #224	; 0xe0
 c003cb0:	e3a02036 	mov	r2, #54	; 0x36
 c003cb4:	e3a0300e 	mov	r3, #14
 c003cb8:	ebfffcb6 	bl	c002f98 <Lcd_Draw_VLine>
	Lcd_Draw_VLine(15, 224, 77.33, 14, 1);
 c003cbc:	e3a03001 	mov	r3, #1
 c003cc0:	e58d3000 	str	r3, [sp]
 c003cc4:	e3a0000f 	mov	r0, #15
 c003cc8:	e3a010e0 	mov	r1, #224	; 0xe0
 c003ccc:	e3a0204d 	mov	r2, #77	; 0x4d
 c003cd0:	e3a0300e 	mov	r3, #14
 c003cd4:	ebfffcaf 	bl	c002f98 <Lcd_Draw_VLine>
	Lcd_Draw_VLine(15, 224, 100.66, 14, 1);
 c003cd8:	e3a03001 	mov	r3, #1
 c003cdc:	e58d3000 	str	r3, [sp]
 c003ce0:	e3a0000f 	mov	r0, #15
 c003ce4:	e3a010e0 	mov	r1, #224	; 0xe0
 c003ce8:	e3a02064 	mov	r2, #100	; 0x64
 c003cec:	e3a0300e 	mov	r3, #14
 c003cf0:	ebfffca8 	bl	c002f98 <Lcd_Draw_VLine>
	Lcd_Draw_VLine(15, 224, 123.99, 14, 3);
 c003cf4:	e3a03003 	mov	r3, #3
 c003cf8:	e58d3000 	str	r3, [sp]
 c003cfc:	e3a0000f 	mov	r0, #15
 c003d00:	e3a010e0 	mov	r1, #224	; 0xe0
 c003d04:	e3a0207b 	mov	r2, #123	; 0x7b
 c003d08:	e3a0300e 	mov	r3, #14
 c003d0c:	ebfffca1 	bl	c002f98 <Lcd_Draw_VLine>
	Lcd_Draw_VLine(15, 224, 147.32, 14, 1);
 c003d10:	e3a03001 	mov	r3, #1
 c003d14:	e58d3000 	str	r3, [sp]
 c003d18:	e3a0000f 	mov	r0, #15
 c003d1c:	e3a010e0 	mov	r1, #224	; 0xe0
 c003d20:	e3a02093 	mov	r2, #147	; 0x93
 c003d24:	e3a0300e 	mov	r3, #14
 c003d28:	ebfffc9a 	bl	c002f98 <Lcd_Draw_VLine>
	Lcd_Draw_VLine(15, 224, 170.65, 14, 1);
 c003d2c:	e3a03001 	mov	r3, #1
 c003d30:	e58d3000 	str	r3, [sp]
 c003d34:	e3a0000f 	mov	r0, #15
 c003d38:	e3a010e0 	mov	r1, #224	; 0xe0
 c003d3c:	e3a020aa 	mov	r2, #170	; 0xaa
 c003d40:	e3a0300e 	mov	r3, #14
 c003d44:	ebfffc93 	bl	c002f98 <Lcd_Draw_VLine>
	Lcd_Draw_VLine(15, 224, 193.98, 14, 3);
 c003d48:	e3a03003 	mov	r3, #3
 c003d4c:	e58d3000 	str	r3, [sp]
 c003d50:	e3a0000f 	mov	r0, #15
 c003d54:	e3a010e0 	mov	r1, #224	; 0xe0
 c003d58:	e3a020c1 	mov	r2, #193	; 0xc1
 c003d5c:	e3a0300e 	mov	r3, #14
 c003d60:	ebfffc8c 	bl	c002f98 <Lcd_Draw_VLine>
	Lcd_Draw_VLine(15, 224, 217.31, 14, 1);
 c003d64:	e3a03001 	mov	r3, #1
 c003d68:	e58d3000 	str	r3, [sp]
 c003d6c:	e3a0000f 	mov	r0, #15
 c003d70:	e3a010e0 	mov	r1, #224	; 0xe0
 c003d74:	e3a020d9 	mov	r2, #217	; 0xd9
 c003d78:	e3a0300e 	mov	r3, #14
 c003d7c:	ebfffc85 	bl	c002f98 <Lcd_Draw_VLine>
	Lcd_Draw_VLine(15, 224, 240.64, 14, 1);
 c003d80:	e3a03001 	mov	r3, #1
 c003d84:	e58d3000 	str	r3, [sp]
 c003d88:	e3a0000f 	mov	r0, #15
 c003d8c:	e3a010e0 	mov	r1, #224	; 0xe0
 c003d90:	e3a020f0 	mov	r2, #240	; 0xf0
 c003d94:	e3a0300e 	mov	r3, #14
 c003d98:	ebfffc7e 	bl	c002f98 <Lcd_Draw_VLine>
	Lcd_Draw_VLine(15, 224, 264, 14, 3);
 c003d9c:	e3a03003 	mov	r3, #3
 c003da0:	e58d3000 	str	r3, [sp]
 c003da4:	e3a0000f 	mov	r0, #15
 c003da8:	e3a010e0 	mov	r1, #224	; 0xe0
 c003dac:	e3a02f42 	mov	r2, #264	; 0x108
 c003db0:	e3a0300e 	mov	r3, #14
 c003db4:	ebfffc77 	bl	c002f98 <Lcd_Draw_VLine>

	Lcd_Dma_Trans();
 c003db8:	ebfffe16 	bl	c003618 <Lcd_Dma_Trans>
}
 c003dbc:	e24bd00c 	sub	sp, fp, #12
 c003dc0:	e89d6800 	ldm	sp, {fp, sp, lr}
 c003dc4:	e12fff1e 	bx	lr

0c003dc8 <leds_on>:
void leds_switch();						// invierte el valor de los leds
void Led_Display(int LedStatus);		// control directo del LED

/*--- codigo de las funciones ---*/
void leds_on()
{
 c003dc8:	e1a0c00d 	mov	ip, sp
 c003dcc:	e92dd800 	push	{fp, ip, lr, pc}
 c003dd0:	e24cb004 	sub	fp, ip, #4
	Led_Display(0x3);
 c003dd4:	e3a00003 	mov	r0, #3
 c003dd8:	eb00005a 	bl	c003f48 <Led_Display>
}
 c003ddc:	e24bd00c 	sub	sp, fp, #12
 c003de0:	e89d6800 	ldm	sp, {fp, sp, lr}
 c003de4:	e12fff1e 	bx	lr

0c003de8 <leds_off>:

void leds_off()
{
 c003de8:	e1a0c00d 	mov	ip, sp
 c003dec:	e92dd800 	push	{fp, ip, lr, pc}
 c003df0:	e24cb004 	sub	fp, ip, #4
	Led_Display(0x0);
 c003df4:	e3a00000 	mov	r0, #0
 c003df8:	eb000052 	bl	c003f48 <Led_Display>
}
 c003dfc:	e24bd00c 	sub	sp, fp, #12
 c003e00:	e89d6800 	ldm	sp, {fp, sp, lr}
 c003e04:	e12fff1e 	bx	lr

0c003e08 <led1_on>:

void led1_on()
{
 c003e08:	e1a0c00d 	mov	ip, sp
 c003e0c:	e92dd800 	push	{fp, ip, lr, pc}
 c003e10:	e24cb004 	sub	fp, ip, #4
	led_state = led_state | 0x1;
 c003e14:	e59f3028 	ldr	r3, [pc, #40]	; c003e44 <led1_on+0x3c>
 c003e18:	e5933000 	ldr	r3, [r3]
 c003e1c:	e3832001 	orr	r2, r3, #1
 c003e20:	e59f301c 	ldr	r3, [pc, #28]	; c003e44 <led1_on+0x3c>
 c003e24:	e5832000 	str	r2, [r3]
	Led_Display(led_state);
 c003e28:	e59f3014 	ldr	r3, [pc, #20]	; c003e44 <led1_on+0x3c>
 c003e2c:	e5933000 	ldr	r3, [r3]
 c003e30:	e1a00003 	mov	r0, r3
 c003e34:	eb000043 	bl	c003f48 <Led_Display>
}
 c003e38:	e24bd00c 	sub	sp, fp, #12
 c003e3c:	e89d6800 	ldm	sp, {fp, sp, lr}
 c003e40:	e12fff1e 	bx	lr
 c003e44:	0c007afc 	.word	0x0c007afc

0c003e48 <led1_off>:

void led1_off()
{
 c003e48:	e1a0c00d 	mov	ip, sp
 c003e4c:	e92dd800 	push	{fp, ip, lr, pc}
 c003e50:	e24cb004 	sub	fp, ip, #4
	led_state = led_state & 0xfe;
 c003e54:	e59f3028 	ldr	r3, [pc, #40]	; c003e84 <led1_off+0x3c>
 c003e58:	e5933000 	ldr	r3, [r3]
 c003e5c:	e20320fe 	and	r2, r3, #254	; 0xfe
 c003e60:	e59f301c 	ldr	r3, [pc, #28]	; c003e84 <led1_off+0x3c>
 c003e64:	e5832000 	str	r2, [r3]
	Led_Display(led_state);
 c003e68:	e59f3014 	ldr	r3, [pc, #20]	; c003e84 <led1_off+0x3c>
 c003e6c:	e5933000 	ldr	r3, [r3]
 c003e70:	e1a00003 	mov	r0, r3
 c003e74:	eb000033 	bl	c003f48 <Led_Display>
}
 c003e78:	e24bd00c 	sub	sp, fp, #12
 c003e7c:	e89d6800 	ldm	sp, {fp, sp, lr}
 c003e80:	e12fff1e 	bx	lr
 c003e84:	0c007afc 	.word	0x0c007afc

0c003e88 <led2_on>:

void led2_on()
{
 c003e88:	e1a0c00d 	mov	ip, sp
 c003e8c:	e92dd800 	push	{fp, ip, lr, pc}
 c003e90:	e24cb004 	sub	fp, ip, #4
	led_state = led_state | 0x2;
 c003e94:	e59f3028 	ldr	r3, [pc, #40]	; c003ec4 <led2_on+0x3c>
 c003e98:	e5933000 	ldr	r3, [r3]
 c003e9c:	e3832002 	orr	r2, r3, #2
 c003ea0:	e59f301c 	ldr	r3, [pc, #28]	; c003ec4 <led2_on+0x3c>
 c003ea4:	e5832000 	str	r2, [r3]
	Led_Display(led_state);
 c003ea8:	e59f3014 	ldr	r3, [pc, #20]	; c003ec4 <led2_on+0x3c>
 c003eac:	e5933000 	ldr	r3, [r3]
 c003eb0:	e1a00003 	mov	r0, r3
 c003eb4:	eb000023 	bl	c003f48 <Led_Display>
}
 c003eb8:	e24bd00c 	sub	sp, fp, #12
 c003ebc:	e89d6800 	ldm	sp, {fp, sp, lr}
 c003ec0:	e12fff1e 	bx	lr
 c003ec4:	0c007afc 	.word	0x0c007afc

0c003ec8 <led2_off>:

void led2_off()
{
 c003ec8:	e1a0c00d 	mov	ip, sp
 c003ecc:	e92dd800 	push	{fp, ip, lr, pc}
 c003ed0:	e24cb004 	sub	fp, ip, #4
	led_state = led_state & 0xfd;
 c003ed4:	e59f3028 	ldr	r3, [pc, #40]	; c003f04 <led2_off+0x3c>
 c003ed8:	e5933000 	ldr	r3, [r3]
 c003edc:	e20320fd 	and	r2, r3, #253	; 0xfd
 c003ee0:	e59f301c 	ldr	r3, [pc, #28]	; c003f04 <led2_off+0x3c>
 c003ee4:	e5832000 	str	r2, [r3]
	Led_Display(led_state);
 c003ee8:	e59f3014 	ldr	r3, [pc, #20]	; c003f04 <led2_off+0x3c>
 c003eec:	e5933000 	ldr	r3, [r3]
 c003ef0:	e1a00003 	mov	r0, r3
 c003ef4:	eb000013 	bl	c003f48 <Led_Display>
}
 c003ef8:	e24bd00c 	sub	sp, fp, #12
 c003efc:	e89d6800 	ldm	sp, {fp, sp, lr}
 c003f00:	e12fff1e 	bx	lr
 c003f04:	0c007afc 	.word	0x0c007afc

0c003f08 <leds_switch>:

void leds_switch()
{
 c003f08:	e1a0c00d 	mov	ip, sp
 c003f0c:	e92dd800 	push	{fp, ip, lr, pc}
 c003f10:	e24cb004 	sub	fp, ip, #4
	led_state ^= 0x03;
 c003f14:	e59f3028 	ldr	r3, [pc, #40]	; c003f44 <leds_switch+0x3c>
 c003f18:	e5933000 	ldr	r3, [r3]
 c003f1c:	e2232003 	eor	r2, r3, #3
 c003f20:	e59f301c 	ldr	r3, [pc, #28]	; c003f44 <leds_switch+0x3c>
 c003f24:	e5832000 	str	r2, [r3]
	Led_Display(led_state);
 c003f28:	e59f3014 	ldr	r3, [pc, #20]	; c003f44 <leds_switch+0x3c>
 c003f2c:	e5933000 	ldr	r3, [r3]
 c003f30:	e1a00003 	mov	r0, r3
 c003f34:	eb000003 	bl	c003f48 <Led_Display>

}
 c003f38:	e24bd00c 	sub	sp, fp, #12
 c003f3c:	e89d6800 	ldm	sp, {fp, sp, lr}
 c003f40:	e12fff1e 	bx	lr
 c003f44:	0c007afc 	.word	0x0c007afc

0c003f48 <Led_Display>:

void Led_Display(int LedStatus)
{
 c003f48:	e1a0c00d 	mov	ip, sp
 c003f4c:	e92dd800 	push	{fp, ip, lr, pc}
 c003f50:	e24cb004 	sub	fp, ip, #4
 c003f54:	e24dd008 	sub	sp, sp, #8
 c003f58:	e50b0010 	str	r0, [fp, #-16]
	led_state = LedStatus;
 c003f5c:	e59f3094 	ldr	r3, [pc, #148]	; c003ff8 <Led_Display+0xb0>
 c003f60:	e51b2010 	ldr	r2, [fp, #-16]
 c003f64:	e5832000 	str	r2, [r3]

	if ((LedStatus & 0x01) == 0x01)
 c003f68:	e51b3010 	ldr	r3, [fp, #-16]
 c003f6c:	e2033001 	and	r3, r3, #1
 c003f70:	e20330ff 	and	r3, r3, #255	; 0xff
 c003f74:	e3530000 	cmp	r3, #0
 c003f78:	0a000006 	beq	c003f98 <Led_Display+0x50>
		rPDATB = rPDATB & 0x5ff; /* poner a 0 el bit 9 del puerto B */
 c003f7c:	e59f2078 	ldr	r2, [pc, #120]	; c003ffc <Led_Display+0xb4>
 c003f80:	e59f3074 	ldr	r3, [pc, #116]	; c003ffc <Led_Display+0xb4>
 c003f84:	e5931000 	ldr	r1, [r3]
 c003f88:	e59f3070 	ldr	r3, [pc, #112]	; c004000 <Led_Display+0xb8>
 c003f8c:	e0013003 	and	r3, r1, r3
 c003f90:	e5823000 	str	r3, [r2]
 c003f94:	ea000004 	b	c003fac <Led_Display+0x64>
	else
		rPDATB = rPDATB | 0x200; /* poner a 1 el bit 9 del puerto B */
 c003f98:	e59f305c 	ldr	r3, [pc, #92]	; c003ffc <Led_Display+0xb4>
 c003f9c:	e59f2058 	ldr	r2, [pc, #88]	; c003ffc <Led_Display+0xb4>
 c003fa0:	e5922000 	ldr	r2, [r2]
 c003fa4:	e3822c02 	orr	r2, r2, #512	; 0x200
 c003fa8:	e5832000 	str	r2, [r3]

	if ((LedStatus & 0x02) == 0x02)
 c003fac:	e51b3010 	ldr	r3, [fp, #-16]
 c003fb0:	e2033002 	and	r3, r3, #2
 c003fb4:	e3530000 	cmp	r3, #0
 c003fb8:	0a000006 	beq	c003fd8 <Led_Display+0x90>
		rPDATB = rPDATB & 0x3ff; /* poner a 0 el bit 10 del puerto B */
 c003fbc:	e59f2038 	ldr	r2, [pc, #56]	; c003ffc <Led_Display+0xb4>
 c003fc0:	e59f3034 	ldr	r3, [pc, #52]	; c003ffc <Led_Display+0xb4>
 c003fc4:	e5933000 	ldr	r3, [r3]
 c003fc8:	e1a03b03 	lsl	r3, r3, #22
 c003fcc:	e1a03b23 	lsr	r3, r3, #22
 c003fd0:	e5823000 	str	r3, [r2]
 c003fd4:	ea000004 	b	c003fec <Led_Display+0xa4>
	else
		rPDATB = rPDATB | 0x400; /* poner a 1 el bit 10 del puerto B */
 c003fd8:	e59f301c 	ldr	r3, [pc, #28]	; c003ffc <Led_Display+0xb4>
 c003fdc:	e59f2018 	ldr	r2, [pc, #24]	; c003ffc <Led_Display+0xb4>
 c003fe0:	e5922000 	ldr	r2, [r2]
 c003fe4:	e3822b01 	orr	r2, r2, #1024	; 0x400
 c003fe8:	e5832000 	str	r2, [r3]
}
 c003fec:	e24bd00c 	sub	sp, fp, #12
 c003ff0:	e89d6800 	ldm	sp, {fp, sp, lr}
 c003ff4:	e12fff1e 	bx	lr
 c003ff8:	0c007afc 	.word	0x0c007afc
 c003ffc:	01d2000c 	.word	0x01d2000c
 c004000:	000005ff 	.word	0x000005ff

0c004004 <error>:
void error(void);


/*--- codigo de funciones ---*/
void error(void)
{
 c004004:	e1a0c00d 	mov	ip, sp
 c004008:	e92dd800 	push	{fp, ip, lr, pc}
 c00400c:	e24cb004 	sub	fp, ip, #4
	while (1)
	{
		leds_on();
 c004010:	ebffff6c 	bl	c003dc8 <leds_on>
		D8Led_symbol(14);
 c004014:	e3a0000e 	mov	r0, #14
 c004018:	ebfff34b 	bl	c000d4c <D8Led_symbol>
	}
 c00401c:	eafffffb 	b	c004010 <error+0xc>

0c004020 <Main>:
}

void Main(void)
{
 c004020:	e1a0c00d 	mov	ip, sp
 c004024:	e92dd800 	push	{fp, ip, lr, pc}
 c004028:	e24cb004 	sub	fp, ip, #4

	/* Inicializa controladores */
	sys_init();        // Inicializacion de la placa, interrupciones y puertos
 c00402c:	ebfff325 	bl	c000cc8 <sys_init>
	timer_init();	   // Inicializacion del temporizador
 c004030:	eb0007b2 	bl	c005f00 <timer_init>
	timer2_Inicializar();
 c004034:	eb0007e0 	bl	c005fbc <timer2_Inicializar>
	timer2_Empezar();
 c004038:	eb00080d 	bl	c006074 <timer2_Empezar>
	Eint4567_init();	// inicializamos los pulsadores. Cada vez que se pulse se ver reflejado en el 8led
 c00403c:	ebfff557 	bl	c0015a0 <Eint4567_init>
	D8Led_init(); // inicializamos el 8led
 c004040:	ebfff338 	bl	c000d28 <D8Led_init>
	init_debugstack();
 c004044:	ebfff2cd 	bl	c000b80 <init_debugstack>

	/* LCD */
	Lcd_Init();
 c004048:	ebfff64a 	bl	c001978 <Lcd_Init>
	Lcd_Clr();
 c00404c:	ebfff6fc 	bl	c001c44 <Lcd_Clr>
	Lcd_Active_Clr();
 c004050:	ebfff6ad 	bl	c001b0c <Lcd_Active_Clr>
	// Pintar autores/instrucciones
	Lcd_DspAscII8x16(28,5,BLACK,"*********************************");
 c004054:	e3a0001c 	mov	r0, #28
 c004058:	e3a01005 	mov	r1, #5
 c00405c:	e3a0200f 	mov	r2, #15
 c004060:	e59f3118 	ldr	r3, [pc, #280]	; c004180 <Main+0x160>
 c004064:	ebfffc59 	bl	c0031d0 <Lcd_DspAscII8x16>
	Lcd_DspAscII8x16(28,20,BLACK,"*          SUDOKU 2015          *");
 c004068:	e3a0001c 	mov	r0, #28
 c00406c:	e3a01014 	mov	r1, #20
 c004070:	e3a0200f 	mov	r2, #15
 c004074:	e59f3108 	ldr	r3, [pc, #264]	; c004184 <Main+0x164>
 c004078:	ebfffc54 	bl	c0031d0 <Lcd_DspAscII8x16>
	Lcd_DspAscII8x16(28,35,BLACK,"*         *************         *");
 c00407c:	e3a0001c 	mov	r0, #28
 c004080:	e3a01023 	mov	r1, #35	; 0x23
 c004084:	e3a0200f 	mov	r2, #15
 c004088:	e59f30f8 	ldr	r3, [pc, #248]	; c004188 <Main+0x168>
 c00408c:	ebfffc4f 	bl	c0031d0 <Lcd_DspAscII8x16>
	Lcd_DspAscII8x16(28,50,BLACK,"* Fernando Aliaga Ramon 610610  *");
 c004090:	e3a0001c 	mov	r0, #28
 c004094:	e3a01032 	mov	r1, #50	; 0x32
 c004098:	e3a0200f 	mov	r2, #15
 c00409c:	e59f30e8 	ldr	r3, [pc, #232]	; c00418c <Main+0x16c>
 c0040a0:	ebfffc4a 	bl	c0031d0 <Lcd_DspAscII8x16>
	Lcd_DspAscII8x16(28,65,BLACK,"* Cristian Simon Moreno 611487  *");
 c0040a4:	e3a0001c 	mov	r0, #28
 c0040a8:	e3a01041 	mov	r1, #65	; 0x41
 c0040ac:	e3a0200f 	mov	r2, #15
 c0040b0:	e59f30d8 	ldr	r3, [pc, #216]	; c004190 <Main+0x170>
 c0040b4:	ebfffc45 	bl	c0031d0 <Lcd_DspAscII8x16>
	Lcd_DspAscII8x16(28,80,BLACK,"*                               *");
 c0040b8:	e3a0001c 	mov	r0, #28
 c0040bc:	e3a01050 	mov	r1, #80	; 0x50
 c0040c0:	e3a0200f 	mov	r2, #15
 c0040c4:	e59f30c8 	ldr	r3, [pc, #200]	; c004194 <Main+0x174>
 c0040c8:	ebfffc40 	bl	c0031d0 <Lcd_DspAscII8x16>
	Lcd_DspAscII8x16(28,95,BLACK,"*********************************");
 c0040cc:	e3a0001c 	mov	r0, #28
 c0040d0:	e3a0105f 	mov	r1, #95	; 0x5f
 c0040d4:	e3a0200f 	mov	r2, #15
 c0040d8:	e59f30a0 	ldr	r3, [pc, #160]	; c004180 <Main+0x160>
 c0040dc:	ebfffc3b 	bl	c0031d0 <Lcd_DspAscII8x16>
	Lcd_DspAscII8x16(28,115,BLACK,"         Instrucciones:         ");
 c0040e0:	e3a0001c 	mov	r0, #28
 c0040e4:	e3a01073 	mov	r1, #115	; 0x73
 c0040e8:	e3a0200f 	mov	r2, #15
 c0040ec:	e59f30a4 	ldr	r3, [pc, #164]	; c004198 <Main+0x178>
 c0040f0:	ebfffc36 	bl	c0031d0 <Lcd_DspAscII8x16>
	Lcd_DspAscII8x16(18,135,BLACK,"Use el boton izquiero para aumentar");
 c0040f4:	e3a00012 	mov	r0, #18
 c0040f8:	e3a01087 	mov	r1, #135	; 0x87
 c0040fc:	e3a0200f 	mov	r2, #15
 c004100:	e59f3094 	ldr	r3, [pc, #148]	; c00419c <Main+0x17c>
 c004104:	ebfffc31 	bl	c0031d0 <Lcd_DspAscII8x16>
	Lcd_DspAscII8x16(18,150,BLACK," el numero de filas/columnas/valor,");
 c004108:	e3a00012 	mov	r0, #18
 c00410c:	e3a01096 	mov	r1, #150	; 0x96
 c004110:	e3a0200f 	mov	r2, #15
 c004114:	e59f3084 	ldr	r3, [pc, #132]	; c0041a0 <Main+0x180>
 c004118:	ebfffc2c 	bl	c0031d0 <Lcd_DspAscII8x16>
	Lcd_DspAscII8x16(10,165,BLACK,"pulse el boton derecho para confirmar.");
 c00411c:	e3a0000a 	mov	r0, #10
 c004120:	e3a010a5 	mov	r1, #165	; 0xa5
 c004124:	e3a0200f 	mov	r2, #15
 c004128:	e59f3074 	ldr	r3, [pc, #116]	; c0041a4 <Main+0x184>
 c00412c:	ebfffc27 	bl	c0031d0 <Lcd_DspAscII8x16>
	Lcd_DspAscII8x16(18,180,BLACK,"Para finalizar introduzca la fila A");
 c004130:	e3a00012 	mov	r0, #18
 c004134:	e3a010b4 	mov	r1, #180	; 0xb4
 c004138:	e3a0200f 	mov	r2, #15
 c00413c:	e59f3064 	ldr	r3, [pc, #100]	; c0041a8 <Main+0x188>
 c004140:	ebfffc22 	bl	c0031d0 <Lcd_DspAscII8x16>
	Lcd_DspAscII8x16(35,205,BLACK,"**Pulse un boton para empezar**");
 c004144:	e3a00023 	mov	r0, #35	; 0x23
 c004148:	e3a010cd 	mov	r1, #205	; 0xcd
 c00414c:	e3a0200f 	mov	r2, #15
 c004150:	e59f3054 	ldr	r3, [pc, #84]	; c0041ac <Main+0x18c>
 c004154:	ebfffc1d 	bl	c0031d0 <Lcd_DspAscII8x16>
	Lcd_Dma_Trans();
 c004158:	ebfffd2e 	bl	c003618 <Lcd_Dma_Trans>
	//unsigned int tiempo2 = timer2_Leer() - tiempo;


	// Bucle infinito para iniciar partida cada vez que finalice la anterior
	while(1) {
		while (botonPulsado() == 0);
 c00415c:	e1a00000 	nop			; (mov r0, r0)
 c004160:	ebfff5ea 	bl	c001910 <botonPulsado>
 c004164:	e1a03000 	mov	r3, r0
 c004168:	e3530000 	cmp	r3, #0
 c00416c:	0afffffb 	beq	c004160 <Main+0x140>
		sudoku9x9(cuadricula);
 c004170:	e59f0038 	ldr	r0, [pc, #56]	; c0041b0 <Main+0x190>
 c004174:	eb000526 	bl	c005614 <sudoku9x9>
	}
 c004178:	e1a00000 	nop			; (mov r0, r0)
	//unsigned int tiempo2 = timer2_Leer() - tiempo;


	// Bucle infinito para iniciar partida cada vez que finalice la anterior
	while(1) {
		while (botonPulsado() == 0);
 c00417c:	eafffff7 	b	c004160 <Main+0x140>
 c004180:	0c0077e8 	.word	0x0c0077e8
 c004184:	0c00780c 	.word	0x0c00780c
 c004188:	0c007830 	.word	0x0c007830
 c00418c:	0c007854 	.word	0x0c007854
 c004190:	0c007878 	.word	0x0c007878
 c004194:	0c00789c 	.word	0x0c00789c
 c004198:	0c0078c0 	.word	0x0c0078c0
 c00419c:	0c0078e4 	.word	0x0c0078e4
 c0041a0:	0c007908 	.word	0x0c007908
 c0041a4:	0c00792c 	.word	0x0c00792c
 c0041a8:	0c007954 	.word	0x0c007954
 c0041ac:	0c007978 	.word	0x0c007978
 c0041b0:	0c007b00 	.word	0x0c007b00

0c0041b4 <celda_poner_valor>:

// modifica el valor almacenado en la celda indicada
inline void
celda_poner_valor(CELDA *celdaptr, uint8_t val);

void celda_poner_valor(CELDA *celdaptr, uint8_t val) {
 c0041b4:	e1a0c00d 	mov	ip, sp
 c0041b8:	e92dd800 	push	{fp, ip, lr, pc}
 c0041bc:	e24cb004 	sub	fp, ip, #4
 c0041c0:	e24dd008 	sub	sp, sp, #8
 c0041c4:	e50b0010 	str	r0, [fp, #-16]
 c0041c8:	e1a03001 	mov	r3, r1
 c0041cc:	e54b3011 	strb	r3, [fp, #-17]	; 0xffffffef
	if ((*celdaptr & 0x800) == 0) {
 c0041d0:	e51b3010 	ldr	r3, [fp, #-16]
 c0041d4:	e1d330b0 	ldrh	r3, [r3]
 c0041d8:	e2033b02 	and	r3, r3, #2048	; 0x800
 c0041dc:	e3530000 	cmp	r3, #0
 c0041e0:	1a000012 	bne	c004230 <celda_poner_valor+0x7c>
		*celdaptr = (*celdaptr & 0x0FFF) | ((val & 0x000F) << 12);
 c0041e4:	e51b3010 	ldr	r3, [fp, #-16]
 c0041e8:	e1d330b0 	ldrh	r3, [r3]
 c0041ec:	e1a03803 	lsl	r3, r3, #16
 c0041f0:	e1a03823 	lsr	r3, r3, #16
 c0041f4:	e1a03a03 	lsl	r3, r3, #20
 c0041f8:	e1a03a23 	lsr	r3, r3, #20
 c0041fc:	e1a03803 	lsl	r3, r3, #16
 c004200:	e1a02823 	lsr	r2, r3, #16
 c004204:	e55b3011 	ldrb	r3, [fp, #-17]	; 0xffffffef
 c004208:	e1a03603 	lsl	r3, r3, #12
 c00420c:	e1a03803 	lsl	r3, r3, #16
 c004210:	e1a03823 	lsr	r3, r3, #16
 c004214:	e1823003 	orr	r3, r2, r3
 c004218:	e1a03803 	lsl	r3, r3, #16
 c00421c:	e1a03823 	lsr	r3, r3, #16
 c004220:	e1a03803 	lsl	r3, r3, #16
 c004224:	e1a02823 	lsr	r2, r3, #16
 c004228:	e51b3010 	ldr	r3, [fp, #-16]
 c00422c:	e1c320b0 	strh	r2, [r3]
	}
}
 c004230:	e24bd00c 	sub	sp, fp, #12
 c004234:	e89d6800 	ldm	sp, {fp, sp, lr}
 c004238:	e12fff1e 	bx	lr

0c00423c <celda_poner_error>:

// modifica el valor almacenado en la celda indicada
inline void
celda_poner_error(CELDA *celdaptr);

void celda_poner_error(CELDA *celdaptr) {
 c00423c:	e1a0c00d 	mov	ip, sp
 c004240:	e92dd800 	push	{fp, ip, lr, pc}
 c004244:	e24cb004 	sub	fp, ip, #4
 c004248:	e24dd008 	sub	sp, sp, #8
 c00424c:	e50b0010 	str	r0, [fp, #-16]
	*celdaptr = *celdaptr | 0x400;
 c004250:	e51b3010 	ldr	r3, [fp, #-16]
 c004254:	e1d330b0 	ldrh	r3, [r3]
 c004258:	e3833b01 	orr	r3, r3, #1024	; 0x400
 c00425c:	e1a03803 	lsl	r3, r3, #16
 c004260:	e1a02823 	lsr	r2, r3, #16
 c004264:	e51b3010 	ldr	r3, [fp, #-16]
 c004268:	e1c320b0 	strh	r2, [r3]
}
 c00426c:	e24bd00c 	sub	sp, fp, #12
 c004270:	e89d6800 	ldm	sp, {fp, sp, lr}
 c004274:	e12fff1e 	bx	lr

0c004278 <celda_quitar_error>:

// deshabilita el bit de error en la celda indicada
inline void
celda_quitar_error(CELDA *celdaptr);

void celda_quitar_error(CELDA *celdaptr) {
 c004278:	e1a0c00d 	mov	ip, sp
 c00427c:	e92dd800 	push	{fp, ip, lr, pc}
 c004280:	e24cb004 	sub	fp, ip, #4
 c004284:	e24dd008 	sub	sp, sp, #8
 c004288:	e50b0010 	str	r0, [fp, #-16]
	*celdaptr = *celdaptr & 0xFBFF;
 c00428c:	e51b3010 	ldr	r3, [fp, #-16]
 c004290:	e1d330b0 	ldrh	r3, [r3]
 c004294:	e3c33b01 	bic	r3, r3, #1024	; 0x400
 c004298:	e1a03803 	lsl	r3, r3, #16
 c00429c:	e1a02823 	lsr	r2, r3, #16
 c0042a0:	e51b3010 	ldr	r3, [fp, #-16]
 c0042a4:	e1c320b0 	strh	r2, [r3]
}
 c0042a8:	e24bd00c 	sub	sp, fp, #12
 c0042ac:	e89d6800 	ldm	sp, {fp, sp, lr}
 c0042b0:	e12fff1e 	bx	lr

0c0042b4 <celda_leer_valor>:

// lee el valor almacenado en la celda indicada
inline uint8_t
celda_leer_valor(CELDA celda);

uint8_t celda_leer_valor(CELDA celda) {
 c0042b4:	e1a0c00d 	mov	ip, sp
 c0042b8:	e92dd800 	push	{fp, ip, lr, pc}
 c0042bc:	e24cb004 	sub	fp, ip, #4
 c0042c0:	e24dd008 	sub	sp, sp, #8
 c0042c4:	e1a03000 	mov	r3, r0
 c0042c8:	e14b30be 	strh	r3, [fp, #-14]
	return (celda >> 12);
 c0042cc:	e15b30be 	ldrh	r3, [fp, #-14]
 c0042d0:	e1a03623 	lsr	r3, r3, #12
 c0042d4:	e1a03803 	lsl	r3, r3, #16
 c0042d8:	e1a03823 	lsr	r3, r3, #16
 c0042dc:	e20330ff 	and	r3, r3, #255	; 0xff
}
 c0042e0:	e1a00003 	mov	r0, r3
 c0042e4:	e24bd00c 	sub	sp, fp, #12
 c0042e8:	e89d6800 	ldm	sp, {fp, sp, lr}
 c0042ec:	e12fff1e 	bx	lr

0c0042f0 <sudoku_candidatos_c>:
////////////////////////////////////////////////////////////////////////////////
// dada una determinada celda encuentra los posibles valores candidatos
// y guarda el mapa de bits en la celda
// retorna false si la celda esta vacia, true si contiene un valor
int sudoku_candidatos_c(CELDA cuadricula[NUM_FILAS][NUM_COLUMNAS], uint8_t fila,
		uint8_t columna) {
 c0042f0:	e1a0c00d 	mov	ip, sp
 c0042f4:	e92dd800 	push	{fp, ip, lr, pc}
 c0042f8:	e24cb004 	sub	fp, ip, #4
 c0042fc:	e24dd028 	sub	sp, sp, #40	; 0x28
 c004300:	e50b0030 	str	r0, [fp, #-48]	; 0xffffffd0
 c004304:	e1a03002 	mov	r3, r2
 c004308:	e1a02001 	mov	r2, r1
 c00430c:	e54b2031 	strb	r2, [fp, #-49]	; 0xffffffcf
 c004310:	e54b3032 	strb	r3, [fp, #-50]	; 0xffffffce
	// iniciar candidatos
	uint16_t valor = 0;
 c004314:	e3a03000 	mov	r3, #0
 c004318:	e14b32b2 	strh	r3, [fp, #-34]	; 0xffffffde
	uint16_t candidatos = 0;
 c00431c:	e3a03000 	mov	r3, #0
 c004320:	e14b30be 	strh	r3, [fp, #-14]
	int region_v = (fila / 3) * 3;
 c004324:	e55b2031 	ldrb	r2, [fp, #-49]	; 0xffffffcf
 c004328:	e59f33e4 	ldr	r3, [pc, #996]	; c004714 <sudoku_candidatos_c+0x424>
 c00432c:	e0831392 	umull	r1, r3, r2, r3
 c004330:	e1a030a3 	lsr	r3, r3, #1
 c004334:	e20330ff 	and	r3, r3, #255	; 0xff
 c004338:	e1a02003 	mov	r2, r3
 c00433c:	e1a03002 	mov	r3, r2
 c004340:	e1a03083 	lsl	r3, r3, #1
 c004344:	e0833002 	add	r3, r3, r2
 c004348:	e50b3028 	str	r3, [fp, #-40]	; 0xffffffd8
	int region_h = (columna / 3) * 3;
 c00434c:	e55b2032 	ldrb	r2, [fp, #-50]	; 0xffffffce
 c004350:	e59f33bc 	ldr	r3, [pc, #956]	; c004714 <sudoku_candidatos_c+0x424>
 c004354:	e0831392 	umull	r1, r3, r2, r3
 c004358:	e1a030a3 	lsr	r3, r3, #1
 c00435c:	e20330ff 	and	r3, r3, #255	; 0xff
 c004360:	e1a02003 	mov	r2, r3
 c004364:	e1a03002 	mov	r3, r2
 c004368:	e1a03083 	lsl	r3, r3, #1
 c00436c:	e0833002 	add	r3, r3, r2
 c004370:	e50b302c 	str	r3, [fp, #-44]	; 0xffffffd4

	// Ponemos a 0 los candidatos de la celda
	cuadricula[fila][columna] = cuadricula[fila][columna] & 0xFE00;
 c004374:	e55b3031 	ldrb	r3, [fp, #-49]	; 0xffffffcf
 c004378:	e1a03283 	lsl	r3, r3, #5
 c00437c:	e51b2030 	ldr	r2, [fp, #-48]	; 0xffffffd0
 c004380:	e0821003 	add	r1, r2, r3
 c004384:	e55b0032 	ldrb	r0, [fp, #-50]	; 0xffffffce
 c004388:	e55b3031 	ldrb	r3, [fp, #-49]	; 0xffffffcf
 c00438c:	e1a03283 	lsl	r3, r3, #5
 c004390:	e51b2030 	ldr	r2, [fp, #-48]	; 0xffffffd0
 c004394:	e0822003 	add	r2, r2, r3
 c004398:	e55b3032 	ldrb	r3, [fp, #-50]	; 0xffffffce
 c00439c:	e1a03083 	lsl	r3, r3, #1
 c0043a0:	e0823003 	add	r3, r2, r3
 c0043a4:	e1d330b0 	ldrh	r3, [r3]
 c0043a8:	e3c33f7f 	bic	r3, r3, #508	; 0x1fc
 c0043ac:	e3c33003 	bic	r3, r3, #3
 c0043b0:	e1a03803 	lsl	r3, r3, #16
 c0043b4:	e1a02823 	lsr	r2, r3, #16
 c0043b8:	e1a03080 	lsl	r3, r0, #1
 c0043bc:	e0813003 	add	r3, r1, r3
 c0043c0:	e1c320b0 	strh	r2, [r3]

	// recorrer fila recalculando candidatos
	for (int x = 0; x < NUM_FILAS; x += 1) {
 c0043c4:	e3a03000 	mov	r3, #0
 c0043c8:	e50b3014 	str	r3, [fp, #-20]	; 0xffffffec
 c0043cc:	ea000020 	b	c004454 <sudoku_candidatos_c+0x164>
		if (x != columna) {
 c0043d0:	e55b2032 	ldrb	r2, [fp, #-50]	; 0xffffffce
 c0043d4:	e51b3014 	ldr	r3, [fp, #-20]	; 0xffffffec
 c0043d8:	e1520003 	cmp	r2, r3
 c0043dc:	0a000019 	beq	c004448 <sudoku_candidatos_c+0x158>
			valor = celda_leer_valor(cuadricula[fila][x]);
 c0043e0:	e55b3031 	ldrb	r3, [fp, #-49]	; 0xffffffcf
 c0043e4:	e1a03283 	lsl	r3, r3, #5
 c0043e8:	e51b2030 	ldr	r2, [fp, #-48]	; 0xffffffd0
 c0043ec:	e0822003 	add	r2, r2, r3
 c0043f0:	e51b3014 	ldr	r3, [fp, #-20]	; 0xffffffec
 c0043f4:	e1a03083 	lsl	r3, r3, #1
 c0043f8:	e0823003 	add	r3, r2, r3
 c0043fc:	e1d330b0 	ldrh	r3, [r3]
 c004400:	e1a00003 	mov	r0, r3
 c004404:	ebffffaa 	bl	c0042b4 <celda_leer_valor>
 c004408:	e1a03000 	mov	r3, r0
 c00440c:	e14b32b2 	strh	r3, [fp, #-34]	; 0xffffffde
			if (valor != 0) {
 c004410:	e15b32b2 	ldrh	r3, [fp, #-34]	; 0xffffffde
 c004414:	e3530000 	cmp	r3, #0
 c004418:	0a00000a 	beq	c004448 <sudoku_candidatos_c+0x158>
				candidatos = candidatos | ((0x1) << (valor - 1));
 c00441c:	e15b32b2 	ldrh	r3, [fp, #-34]	; 0xffffffde
 c004420:	e2433001 	sub	r3, r3, #1
 c004424:	e3a02001 	mov	r2, #1
 c004428:	e1a03312 	lsl	r3, r2, r3
 c00442c:	e1a03803 	lsl	r3, r3, #16
 c004430:	e1a02823 	lsr	r2, r3, #16
 c004434:	e15b30be 	ldrh	r3, [fp, #-14]
 c004438:	e1823003 	orr	r3, r2, r3
 c00443c:	e1a03803 	lsl	r3, r3, #16
 c004440:	e1a03823 	lsr	r3, r3, #16
 c004444:	e14b30be 	strh	r3, [fp, #-14]

	// Ponemos a 0 los candidatos de la celda
	cuadricula[fila][columna] = cuadricula[fila][columna] & 0xFE00;

	// recorrer fila recalculando candidatos
	for (int x = 0; x < NUM_FILAS; x += 1) {
 c004448:	e51b3014 	ldr	r3, [fp, #-20]	; 0xffffffec
 c00444c:	e2833001 	add	r3, r3, #1
 c004450:	e50b3014 	str	r3, [fp, #-20]	; 0xffffffec
 c004454:	e51b3014 	ldr	r3, [fp, #-20]	; 0xffffffec
 c004458:	e3530008 	cmp	r3, #8
 c00445c:	daffffdb 	ble	c0043d0 <sudoku_candidatos_c+0xe0>
			}
		}
	}

	// recorrer columna recalculando candidatos
	for (int y = 0; y < NUM_FILAS; y += 1) {
 c004460:	e3a03000 	mov	r3, #0
 c004464:	e50b3018 	str	r3, [fp, #-24]	; 0xffffffe8
 c004468:	ea000020 	b	c0044f0 <sudoku_candidatos_c+0x200>
		if (y != fila) {
 c00446c:	e55b2031 	ldrb	r2, [fp, #-49]	; 0xffffffcf
 c004470:	e51b3018 	ldr	r3, [fp, #-24]	; 0xffffffe8
 c004474:	e1520003 	cmp	r2, r3
 c004478:	0a000019 	beq	c0044e4 <sudoku_candidatos_c+0x1f4>
			valor = celda_leer_valor(cuadricula[y][columna]);
 c00447c:	e51b3018 	ldr	r3, [fp, #-24]	; 0xffffffe8
 c004480:	e1a03283 	lsl	r3, r3, #5
 c004484:	e51b2030 	ldr	r2, [fp, #-48]	; 0xffffffd0
 c004488:	e0822003 	add	r2, r2, r3
 c00448c:	e55b3032 	ldrb	r3, [fp, #-50]	; 0xffffffce
 c004490:	e1a03083 	lsl	r3, r3, #1
 c004494:	e0823003 	add	r3, r2, r3
 c004498:	e1d330b0 	ldrh	r3, [r3]
 c00449c:	e1a00003 	mov	r0, r3
 c0044a0:	ebffff83 	bl	c0042b4 <celda_leer_valor>
 c0044a4:	e1a03000 	mov	r3, r0
 c0044a8:	e14b32b2 	strh	r3, [fp, #-34]	; 0xffffffde
			if (valor != 0) {
 c0044ac:	e15b32b2 	ldrh	r3, [fp, #-34]	; 0xffffffde
 c0044b0:	e3530000 	cmp	r3, #0
 c0044b4:	0a00000a 	beq	c0044e4 <sudoku_candidatos_c+0x1f4>
				candidatos = candidatos | ((0x1) << (valor - 1));
 c0044b8:	e15b32b2 	ldrh	r3, [fp, #-34]	; 0xffffffde
 c0044bc:	e2433001 	sub	r3, r3, #1
 c0044c0:	e3a02001 	mov	r2, #1
 c0044c4:	e1a03312 	lsl	r3, r2, r3
 c0044c8:	e1a03803 	lsl	r3, r3, #16
 c0044cc:	e1a02823 	lsr	r2, r3, #16
 c0044d0:	e15b30be 	ldrh	r3, [fp, #-14]
 c0044d4:	e1823003 	orr	r3, r2, r3
 c0044d8:	e1a03803 	lsl	r3, r3, #16
 c0044dc:	e1a03823 	lsr	r3, r3, #16
 c0044e0:	e14b30be 	strh	r3, [fp, #-14]
			}
		}
	}

	// recorrer columna recalculando candidatos
	for (int y = 0; y < NUM_FILAS; y += 1) {
 c0044e4:	e51b3018 	ldr	r3, [fp, #-24]	; 0xffffffe8
 c0044e8:	e2833001 	add	r3, r3, #1
 c0044ec:	e50b3018 	str	r3, [fp, #-24]	; 0xffffffe8
 c0044f0:	e51b3018 	ldr	r3, [fp, #-24]	; 0xffffffe8
 c0044f4:	e3530008 	cmp	r3, #8
 c0044f8:	daffffdb 	ble	c00446c <sudoku_candidatos_c+0x17c>
			}
		}
	}

	// recorrer region recalculando candidatos
	for (int x = region_v; x < (region_v + 3); x += 1) {
 c0044fc:	e51b3028 	ldr	r3, [fp, #-40]	; 0xffffffd8
 c004500:	e50b301c 	str	r3, [fp, #-28]	; 0xffffffe4
 c004504:	ea000037 	b	c0045e8 <sudoku_candidatos_c+0x2f8>
		for (int y = region_h; y < (region_h + 3); y += 1) {
 c004508:	e51b302c 	ldr	r3, [fp, #-44]	; 0xffffffd4
 c00450c:	e50b3020 	str	r3, [fp, #-32]	; 0xffffffe0
 c004510:	ea00002c 	b	c0045c8 <sudoku_candidatos_c+0x2d8>
			if ((x != fila) | (y != columna)) {
 c004514:	e55b2031 	ldrb	r2, [fp, #-49]	; 0xffffffcf
 c004518:	e51b301c 	ldr	r3, [fp, #-28]	; 0xffffffe4
 c00451c:	e1520003 	cmp	r2, r3
 c004520:	03a03000 	moveq	r3, #0
 c004524:	13a03001 	movne	r3, #1
 c004528:	e20320ff 	and	r2, r3, #255	; 0xff
 c00452c:	e55b1032 	ldrb	r1, [fp, #-50]	; 0xffffffce
 c004530:	e51b3020 	ldr	r3, [fp, #-32]	; 0xffffffe0
 c004534:	e1510003 	cmp	r1, r3
 c004538:	03a03000 	moveq	r3, #0
 c00453c:	13a03001 	movne	r3, #1
 c004540:	e20330ff 	and	r3, r3, #255	; 0xff
 c004544:	e1823003 	orr	r3, r2, r3
 c004548:	e20330ff 	and	r3, r3, #255	; 0xff
 c00454c:	e3530000 	cmp	r3, #0
 c004550:	0a000019 	beq	c0045bc <sudoku_candidatos_c+0x2cc>
				valor = celda_leer_valor(cuadricula[x][y]);
 c004554:	e51b301c 	ldr	r3, [fp, #-28]	; 0xffffffe4
 c004558:	e1a03283 	lsl	r3, r3, #5
 c00455c:	e51b2030 	ldr	r2, [fp, #-48]	; 0xffffffd0
 c004560:	e0822003 	add	r2, r2, r3
 c004564:	e51b3020 	ldr	r3, [fp, #-32]	; 0xffffffe0
 c004568:	e1a03083 	lsl	r3, r3, #1
 c00456c:	e0823003 	add	r3, r2, r3
 c004570:	e1d330b0 	ldrh	r3, [r3]
 c004574:	e1a00003 	mov	r0, r3
 c004578:	ebffff4d 	bl	c0042b4 <celda_leer_valor>
 c00457c:	e1a03000 	mov	r3, r0
 c004580:	e14b32b2 	strh	r3, [fp, #-34]	; 0xffffffde
				if (valor != 0) {
 c004584:	e15b32b2 	ldrh	r3, [fp, #-34]	; 0xffffffde
 c004588:	e3530000 	cmp	r3, #0
 c00458c:	0a00000a 	beq	c0045bc <sudoku_candidatos_c+0x2cc>
					candidatos = candidatos | ((0x1) << (valor - 1));
 c004590:	e15b32b2 	ldrh	r3, [fp, #-34]	; 0xffffffde
 c004594:	e2433001 	sub	r3, r3, #1
 c004598:	e3a02001 	mov	r2, #1
 c00459c:	e1a03312 	lsl	r3, r2, r3
 c0045a0:	e1a03803 	lsl	r3, r3, #16
 c0045a4:	e1a02823 	lsr	r2, r3, #16
 c0045a8:	e15b30be 	ldrh	r3, [fp, #-14]
 c0045ac:	e1823003 	orr	r3, r2, r3
 c0045b0:	e1a03803 	lsl	r3, r3, #16
 c0045b4:	e1a03823 	lsr	r3, r3, #16
 c0045b8:	e14b30be 	strh	r3, [fp, #-14]
		}
	}

	// recorrer region recalculando candidatos
	for (int x = region_v; x < (region_v + 3); x += 1) {
		for (int y = region_h; y < (region_h + 3); y += 1) {
 c0045bc:	e51b3020 	ldr	r3, [fp, #-32]	; 0xffffffe0
 c0045c0:	e2833001 	add	r3, r3, #1
 c0045c4:	e50b3020 	str	r3, [fp, #-32]	; 0xffffffe0
 c0045c8:	e51b302c 	ldr	r3, [fp, #-44]	; 0xffffffd4
 c0045cc:	e2832003 	add	r2, r3, #3
 c0045d0:	e51b3020 	ldr	r3, [fp, #-32]	; 0xffffffe0
 c0045d4:	e1520003 	cmp	r2, r3
 c0045d8:	caffffcd 	bgt	c004514 <sudoku_candidatos_c+0x224>
			}
		}
	}

	// recorrer region recalculando candidatos
	for (int x = region_v; x < (region_v + 3); x += 1) {
 c0045dc:	e51b301c 	ldr	r3, [fp, #-28]	; 0xffffffe4
 c0045e0:	e2833001 	add	r3, r3, #1
 c0045e4:	e50b301c 	str	r3, [fp, #-28]	; 0xffffffe4
 c0045e8:	e51b3028 	ldr	r3, [fp, #-40]	; 0xffffffd8
 c0045ec:	e2832003 	add	r2, r3, #3
 c0045f0:	e51b301c 	ldr	r3, [fp, #-28]	; 0xffffffe4
 c0045f4:	e1520003 	cmp	r2, r3
 c0045f8:	caffffc2 	bgt	c004508 <sudoku_candidatos_c+0x218>
					candidatos = candidatos | ((0x1) << (valor - 1));
				}
			}
		}
	}
	cuadricula[fila][columna] = cuadricula[fila][columna] | candidatos;
 c0045fc:	e55b3031 	ldrb	r3, [fp, #-49]	; 0xffffffcf
 c004600:	e1a03283 	lsl	r3, r3, #5
 c004604:	e51b2030 	ldr	r2, [fp, #-48]	; 0xffffffd0
 c004608:	e0821003 	add	r1, r2, r3
 c00460c:	e55b3032 	ldrb	r3, [fp, #-50]	; 0xffffffce
 c004610:	e55b2031 	ldrb	r2, [fp, #-49]	; 0xffffffcf
 c004614:	e1a02282 	lsl	r2, r2, #5
 c004618:	e51b0030 	ldr	r0, [fp, #-48]	; 0xffffffd0
 c00461c:	e0800002 	add	r0, r0, r2
 c004620:	e55b2032 	ldrb	r2, [fp, #-50]	; 0xffffffce
 c004624:	e1a02082 	lsl	r2, r2, #1
 c004628:	e0802002 	add	r2, r0, r2
 c00462c:	e1d200b0 	ldrh	r0, [r2]
 c004630:	e15b20be 	ldrh	r2, [fp, #-14]
 c004634:	e1802002 	orr	r2, r0, r2
 c004638:	e1a02802 	lsl	r2, r2, #16
 c00463c:	e1a02822 	lsr	r2, r2, #16
 c004640:	e1a03083 	lsl	r3, r3, #1
 c004644:	e0813003 	add	r3, r1, r3
 c004648:	e1c320b0 	strh	r2, [r3]
	 *	(sea Pista o valor introducido por el usuario), est o no en la lista de candidatos.
	 *	Si no est deberemos marcar el bit correspondiente de esa celda como errnea.
	 *	La funcin devolver como resultado: 0 celda vaca, 1 celda llena, -1 celda llena
	 *	pero error detectado.
	 */
	valor = celda_leer_valor(cuadricula[fila][columna]);
 c00464c:	e55b3031 	ldrb	r3, [fp, #-49]	; 0xffffffcf
 c004650:	e1a03283 	lsl	r3, r3, #5
 c004654:	e51b2030 	ldr	r2, [fp, #-48]	; 0xffffffd0
 c004658:	e0822003 	add	r2, r2, r3
 c00465c:	e55b3032 	ldrb	r3, [fp, #-50]	; 0xffffffce
 c004660:	e1a03083 	lsl	r3, r3, #1
 c004664:	e0823003 	add	r3, r2, r3
 c004668:	e1d330b0 	ldrh	r3, [r3]
 c00466c:	e1a00003 	mov	r0, r3
 c004670:	ebffff0f 	bl	c0042b4 <celda_leer_valor>
 c004674:	e1a03000 	mov	r3, r0
 c004678:	e14b32b2 	strh	r3, [fp, #-34]	; 0xffffffde
	//Si la celda est vacia devolvemos 0
	if (valor == 0) {
 c00467c:	e15b32b2 	ldrh	r3, [fp, #-34]	; 0xffffffde
 c004680:	e3530000 	cmp	r3, #0
 c004684:	1a000001 	bne	c004690 <sudoku_candidatos_c+0x3a0>
		return 0;
 c004688:	e3a03000 	mov	r3, #0
 c00468c:	ea00001c 	b	c004704 <sudoku_candidatos_c+0x414>
	}
	//Si el valor introducido no est en la lista de candidatos devolvemos -1
	if (candidatos & ((0x1) << (valor - 1))) {
 c004690:	e15b20be 	ldrh	r2, [fp, #-14]
 c004694:	e15b32b2 	ldrh	r3, [fp, #-34]	; 0xffffffde
 c004698:	e2433001 	sub	r3, r3, #1
 c00469c:	e1a03352 	asr	r3, r2, r3
 c0046a0:	e2033001 	and	r3, r3, #1
 c0046a4:	e20330ff 	and	r3, r3, #255	; 0xff
 c0046a8:	e3530000 	cmp	r3, #0
 c0046ac:	0a00000a 	beq	c0046dc <sudoku_candidatos_c+0x3ec>
		celda_poner_error(&cuadricula[fila][columna]);
 c0046b0:	e51b2030 	ldr	r2, [fp, #-48]	; 0xffffffd0
 c0046b4:	e55b3031 	ldrb	r3, [fp, #-49]	; 0xffffffcf
 c0046b8:	e1a01203 	lsl	r1, r3, #4
 c0046bc:	e55b3032 	ldrb	r3, [fp, #-50]	; 0xffffffce
 c0046c0:	e0813003 	add	r3, r1, r3
 c0046c4:	e1a03083 	lsl	r3, r3, #1
 c0046c8:	e0823003 	add	r3, r2, r3
 c0046cc:	e1a00003 	mov	r0, r3
 c0046d0:	ebfffed9 	bl	c00423c <celda_poner_error>
		return -1;
 c0046d4:	e3e03000 	mvn	r3, #0
 c0046d8:	ea000009 	b	c004704 <sudoku_candidatos_c+0x414>
	}
	celda_quitar_error(&cuadricula[fila][columna]);
 c0046dc:	e51b2030 	ldr	r2, [fp, #-48]	; 0xffffffd0
 c0046e0:	e55b3031 	ldrb	r3, [fp, #-49]	; 0xffffffcf
 c0046e4:	e1a01203 	lsl	r1, r3, #4
 c0046e8:	e55b3032 	ldrb	r3, [fp, #-50]	; 0xffffffce
 c0046ec:	e0813003 	add	r3, r1, r3
 c0046f0:	e1a03083 	lsl	r3, r3, #1
 c0046f4:	e0823003 	add	r3, r2, r3
 c0046f8:	e1a00003 	mov	r0, r3
 c0046fc:	ebfffedd 	bl	c004278 <celda_quitar_error>
	return 1;
 c004700:	e3a03001 	mov	r3, #1
}
 c004704:	e1a00003 	mov	r0, r3
 c004708:	e24bd00c 	sub	sp, fp, #12
 c00470c:	e89d6800 	ldm	sp, {fp, sp, lr}
 c004710:	e12fff1e 	bx	lr
 c004714:	aaaaaaab 	.word	0xaaaaaaab

0c004718 <sudoku_recalcular_c>:

////////////////////////////////////////////////////////////////////////////////
// recalcula todo el tablero (9x9)
// retorna el numero de celdas vacias
int sudoku_recalcular_c(CELDA cuadricula[NUM_FILAS][NUM_COLUMNAS]) {
 c004718:	e1a0c00d 	mov	ip, sp
 c00471c:	e92dd800 	push	{fp, ip, lr, pc}
 c004720:	e24cb004 	sub	fp, ip, #4
 c004724:	e24dd020 	sub	sp, sp, #32
 c004728:	e50b0028 	str	r0, [fp, #-40]	; 0xffffffd8
	int celdas_vacias = 0;
 c00472c:	e3a03000 	mov	r3, #0
 c004730:	e50b3010 	str	r3, [fp, #-16]
	int valor = 0;
 c004734:	e3a03000 	mov	r3, #0
 c004738:	e50b3020 	str	r3, [fp, #-32]	; 0xffffffe0
	int errores = 0;
 c00473c:	e3a03000 	mov	r3, #0
 c004740:	e50b3014 	str	r3, [fp, #-20]	; 0xffffffec
	//para cada fila
	for (int x = 0; x < NUM_FILAS; x += 1) {
 c004744:	e3a03000 	mov	r3, #0
 c004748:	e50b3018 	str	r3, [fp, #-24]	; 0xffffffe8
 c00474c:	ea000020 	b	c0047d4 <sudoku_recalcular_c+0xbc>
		//para cada columna
		for (int y = 0; y < NUM_FILAS; y += 1) {
 c004750:	e3a03000 	mov	r3, #0
 c004754:	e50b301c 	str	r3, [fp, #-28]	; 0xffffffe4
 c004758:	ea000017 	b	c0047bc <sudoku_recalcular_c+0xa4>
			//determinar candidatos
			//if(!sudoku_candidatos_thumb(cuadricula,x,y)){
			//if(!sudoku_candidatos_arm(cuadricula,x,y)){
			valor = sudoku_candidatos_c(cuadricula, x, y);
 c00475c:	e51b3018 	ldr	r3, [fp, #-24]	; 0xffffffe8
 c004760:	e20320ff 	and	r2, r3, #255	; 0xff
 c004764:	e51b301c 	ldr	r3, [fp, #-28]	; 0xffffffe4
 c004768:	e20330ff 	and	r3, r3, #255	; 0xff
 c00476c:	e51b0028 	ldr	r0, [fp, #-40]	; 0xffffffd8
 c004770:	e1a01002 	mov	r1, r2
 c004774:	e1a02003 	mov	r2, r3
 c004778:	ebfffedc 	bl	c0042f0 <sudoku_candidatos_c>
 c00477c:	e50b0020 	str	r0, [fp, #-32]	; 0xffffffe0
			if (valor == 0) {
 c004780:	e51b3020 	ldr	r3, [fp, #-32]	; 0xffffffe0
 c004784:	e3530000 	cmp	r3, #0
 c004788:	1a000002 	bne	c004798 <sudoku_recalcular_c+0x80>
				//actualizar contador de celdas vacias
				celdas_vacias++;
 c00478c:	e51b3010 	ldr	r3, [fp, #-16]
 c004790:	e2833001 	add	r3, r3, #1
 c004794:	e50b3010 	str	r3, [fp, #-16]
			}
			if (valor == -1) {
 c004798:	e51b3020 	ldr	r3, [fp, #-32]	; 0xffffffe0
 c00479c:	e3730001 	cmn	r3, #1
 c0047a0:	1a000002 	bne	c0047b0 <sudoku_recalcular_c+0x98>
				errores--;
 c0047a4:	e51b3014 	ldr	r3, [fp, #-20]	; 0xffffffec
 c0047a8:	e2433001 	sub	r3, r3, #1
 c0047ac:	e50b3014 	str	r3, [fp, #-20]	; 0xffffffec
	int valor = 0;
	int errores = 0;
	//para cada fila
	for (int x = 0; x < NUM_FILAS; x += 1) {
		//para cada columna
		for (int y = 0; y < NUM_FILAS; y += 1) {
 c0047b0:	e51b301c 	ldr	r3, [fp, #-28]	; 0xffffffe4
 c0047b4:	e2833001 	add	r3, r3, #1
 c0047b8:	e50b301c 	str	r3, [fp, #-28]	; 0xffffffe4
 c0047bc:	e51b301c 	ldr	r3, [fp, #-28]	; 0xffffffe4
 c0047c0:	e3530008 	cmp	r3, #8
 c0047c4:	daffffe4 	ble	c00475c <sudoku_recalcular_c+0x44>
int sudoku_recalcular_c(CELDA cuadricula[NUM_FILAS][NUM_COLUMNAS]) {
	int celdas_vacias = 0;
	int valor = 0;
	int errores = 0;
	//para cada fila
	for (int x = 0; x < NUM_FILAS; x += 1) {
 c0047c8:	e51b3018 	ldr	r3, [fp, #-24]	; 0xffffffe8
 c0047cc:	e2833001 	add	r3, r3, #1
 c0047d0:	e50b3018 	str	r3, [fp, #-24]	; 0xffffffe8
 c0047d4:	e51b3018 	ldr	r3, [fp, #-24]	; 0xffffffe8
 c0047d8:	e3530008 	cmp	r3, #8
 c0047dc:	daffffdb 	ble	c004750 <sudoku_recalcular_c+0x38>
				errores--;
			}
		}
	}
	//retornar el numero de celdas vacias
	if (errores < 0) {
 c0047e0:	e51b3014 	ldr	r3, [fp, #-20]	; 0xffffffec
 c0047e4:	e3530000 	cmp	r3, #0
 c0047e8:	aa000001 	bge	c0047f4 <sudoku_recalcular_c+0xdc>
		return errores;
 c0047ec:	e51b3014 	ldr	r3, [fp, #-20]	; 0xffffffec
 c0047f0:	ea000000 	b	c0047f8 <sudoku_recalcular_c+0xe0>
	}
	return celdas_vacias;
 c0047f4:	e51b3010 	ldr	r3, [fp, #-16]
}
 c0047f8:	e1a00003 	mov	r0, r3
 c0047fc:	e24bd00c 	sub	sp, fp, #12
 c004800:	e89d6800 	ldm	sp, {fp, sp, lr}
 c004804:	e12fff1e 	bx	lr

0c004808 <rellenar_cuadricula>:

/**
 * Inicializa el tablero del juego
 */
void rellenar_cuadricula(CELDA cuadricula[NUM_FILAS][NUM_COLUMNAS]) {
 c004808:	e1a0c00d 	mov	ip, sp
 c00480c:	e92dd800 	push	{fp, ip, lr, pc}
 c004810:	e24cb004 	sub	fp, ip, #4
 c004814:	e24dd010 	sub	sp, sp, #16
 c004818:	e50b0018 	str	r0, [fp, #-24]	; 0xffffffe8
	// Pintamos el tablero
	Lcd_InitTablero();
 c00481c:	ebfffc21 	bl	c0038a8 <Lcd_InitTablero>
	for (int x = 0; x < NUM_FILAS; x += 1) {
 c004820:	e3a03000 	mov	r3, #0
 c004824:	e50b3010 	str	r3, [fp, #-16]
 c004828:	ea00001b 	b	c00489c <rellenar_cuadricula+0x94>
		//para cada columna
		for (int y = 0; y < NUM_FILAS; y += 1) {
 c00482c:	e3a03000 	mov	r3, #0
 c004830:	e50b3014 	str	r3, [fp, #-20]	; 0xffffffec
 c004834:	ea000012 	b	c004884 <rellenar_cuadricula+0x7c>
			cuadricula[x][y] = cuadricula_inicial[x][y];
 c004838:	e51b3010 	ldr	r3, [fp, #-16]
 c00483c:	e1a03283 	lsl	r3, r3, #5
 c004840:	e51b2018 	ldr	r2, [fp, #-24]	; 0xffffffe8
 c004844:	e0821003 	add	r1, r2, r3
 c004848:	e59f2064 	ldr	r2, [pc, #100]	; c0048b4 <rellenar_cuadricula+0xac>
 c00484c:	e51b3010 	ldr	r3, [fp, #-16]
 c004850:	e1a00203 	lsl	r0, r3, #4
 c004854:	e51b3014 	ldr	r3, [fp, #-20]	; 0xffffffec
 c004858:	e0803003 	add	r3, r0, r3
 c00485c:	e1a03083 	lsl	r3, r3, #1
 c004860:	e0823003 	add	r3, r2, r3
 c004864:	e1d320b0 	ldrh	r2, [r3]
 c004868:	e51b3014 	ldr	r3, [fp, #-20]	; 0xffffffec
 c00486c:	e1a03083 	lsl	r3, r3, #1
 c004870:	e0813003 	add	r3, r1, r3
 c004874:	e1c320b0 	strh	r2, [r3]
void rellenar_cuadricula(CELDA cuadricula[NUM_FILAS][NUM_COLUMNAS]) {
	// Pintamos el tablero
	Lcd_InitTablero();
	for (int x = 0; x < NUM_FILAS; x += 1) {
		//para cada columna
		for (int y = 0; y < NUM_FILAS; y += 1) {
 c004878:	e51b3014 	ldr	r3, [fp, #-20]	; 0xffffffec
 c00487c:	e2833001 	add	r3, r3, #1
 c004880:	e50b3014 	str	r3, [fp, #-20]	; 0xffffffec
 c004884:	e51b3014 	ldr	r3, [fp, #-20]	; 0xffffffec
 c004888:	e3530008 	cmp	r3, #8
 c00488c:	daffffe9 	ble	c004838 <rellenar_cuadricula+0x30>
 * Inicializa el tablero del juego
 */
void rellenar_cuadricula(CELDA cuadricula[NUM_FILAS][NUM_COLUMNAS]) {
	// Pintamos el tablero
	Lcd_InitTablero();
	for (int x = 0; x < NUM_FILAS; x += 1) {
 c004890:	e51b3010 	ldr	r3, [fp, #-16]
 c004894:	e2833001 	add	r3, r3, #1
 c004898:	e50b3010 	str	r3, [fp, #-16]
 c00489c:	e51b3010 	ldr	r3, [fp, #-16]
 c0048a0:	e3530008 	cmp	r3, #8
 c0048a4:	daffffe0 	ble	c00482c <rellenar_cuadricula+0x24>
		//para cada columna
		for (int y = 0; y < NUM_FILAS; y += 1) {
			cuadricula[x][y] = cuadricula_inicial[x][y];
		}
	}
}
 c0048a8:	e24bd00c 	sub	sp, fp, #12
 c0048ac:	e89d6800 	ldm	sp, {fp, sp, lr}
 c0048b0:	e12fff1e 	bx	lr
 c0048b4:	0c006560 	.word	0x0c006560

0c0048b8 <actualizarTablero>:

/**
 * Actualiza el tablero del juego pintando los diferentes tipos de datos
 * del sudoku
 */
void actualizarTablero(CELDA cuadricula[NUM_FILAS][NUM_COLUMNAS]) {
 c0048b8:	e1a0c00d 	mov	ip, sp
 c0048bc:	e92dd800 	push	{fp, ip, lr, pc}
 c0048c0:	e24cb004 	sub	fp, ip, #4
 c0048c4:	e24dd040 	sub	sp, sp, #64	; 0x40
 c0048c8:	e50b0040 	str	r0, [fp, #-64]	; 0xffffffc0
	const int desp_table[3] = { espaciado_candidatos_px * 5,
 c0048cc:	e59f3ad4 	ldr	r3, [pc, #2772]	; c0053a8 <actualizarTablero+0xaf0>
 c0048d0:	e5932000 	ldr	r2, [r3]
 c0048d4:	e1a03002 	mov	r3, r2
 c0048d8:	e1a03103 	lsl	r3, r3, #2
 c0048dc:	e0833002 	add	r3, r3, r2
 c0048e0:	e1a01003 	mov	r1, r3
			espaciado_candidatos_px * 3, espaciado_candidatos_px };
 c0048e4:	e59f3abc 	ldr	r3, [pc, #2748]	; c0053a8 <actualizarTablero+0xaf0>
 c0048e8:	e5932000 	ldr	r2, [r3]
 c0048ec:	e1a03002 	mov	r3, r2
 c0048f0:	e1a03083 	lsl	r3, r3, #1
 c0048f4:	e0833002 	add	r3, r3, r2
/**
 * Actualiza el tablero del juego pintando los diferentes tipos de datos
 * del sudoku
 */
void actualizarTablero(CELDA cuadricula[NUM_FILAS][NUM_COLUMNAS]) {
	const int desp_table[3] = { espaciado_candidatos_px * 5,
 c0048f8:	e1a02003 	mov	r2, r3
 c0048fc:	e59f3aa4 	ldr	r3, [pc, #2724]	; c0053a8 <actualizarTablero+0xaf0>
 c004900:	e5933000 	ldr	r3, [r3]
 c004904:	e50b103c 	str	r1, [fp, #-60]	; 0xffffffc4
 c004908:	e50b2038 	str	r2, [fp, #-56]	; 0xffffffc8
 c00490c:	e50b3034 	str	r3, [fp, #-52]	; 0xffffffcc
			espaciado_candidatos_px * 3, espaciado_candidatos_px };
	uint16_t valor = 0;
 c004910:	e3a03000 	mov	r3, #0
 c004914:	e14b31be 	strh	r3, [fp, #-30]	; 0xffffffe2
	//para cada fila
	for (int x = 0; x < NUM_FILAS; x += 1) {
 c004918:	e3a03000 	mov	r3, #0
 c00491c:	e50b3010 	str	r3, [fp, #-16]
 c004920:	ea000299 	b	c00538c <actualizarTablero+0xad4>
		//para cada columna
		for (int y = 0; y < NUM_FILAS; y += 1) {
 c004924:	e3a03000 	mov	r3, #0
 c004928:	e50b3014 	str	r3, [fp, #-20]	; 0xffffffec
 c00492c:	ea000290 	b	c005374 <actualizarTablero+0xabc>
			//limpiamos la celda en el lcd
			LcdClrRect(((y * espaciado_celdas_px) + 2) + margen_izdo_px,
 c004930:	e51b3014 	ldr	r3, [fp, #-20]	; 0xffffffec
 c004934:	e1a03803 	lsl	r3, r3, #16
 c004938:	e1a03823 	lsr	r3, r3, #16
 c00493c:	e59f2a68 	ldr	r2, [pc, #2664]	; c0053ac <actualizarTablero+0xaf4>
 c004940:	e5922000 	ldr	r2, [r2]
 c004944:	e1a02802 	lsl	r2, r2, #16
 c004948:	e1a02822 	lsr	r2, r2, #16
 c00494c:	e0030392 	mul	r3, r2, r3
 c004950:	e1a03803 	lsl	r3, r3, #16
 c004954:	e1a03823 	lsr	r3, r3, #16
 c004958:	e2833038 	add	r3, r3, #56	; 0x38
 c00495c:	e1a03803 	lsl	r3, r3, #16
 c004960:	e1a03823 	lsr	r3, r3, #16
 c004964:	e1a03803 	lsl	r3, r3, #16
 c004968:	e1a00823 	lsr	r0, r3, #16
 c00496c:	e51b3010 	ldr	r3, [fp, #-16]
 c004970:	e1a03803 	lsl	r3, r3, #16
 c004974:	e1a03823 	lsr	r3, r3, #16
 c004978:	e59f2a2c 	ldr	r2, [pc, #2604]	; c0053ac <actualizarTablero+0xaf4>
 c00497c:	e5922000 	ldr	r2, [r2]
 c004980:	e1a02802 	lsl	r2, r2, #16
 c004984:	e1a02822 	lsr	r2, r2, #16
 c004988:	e0030392 	mul	r3, r2, r3
 c00498c:	e1a03803 	lsl	r3, r3, #16
 c004990:	e1a03823 	lsr	r3, r3, #16
 c004994:	e2833011 	add	r3, r3, #17
 c004998:	e1a03803 	lsl	r3, r3, #16
 c00499c:	e1a03823 	lsr	r3, r3, #16
 c0049a0:	e1a03803 	lsl	r3, r3, #16
 c0049a4:	e1a01823 	lsr	r1, r3, #16
					((x * espaciado_celdas_px) + 2) + margen_arriba_px,
					(((y + 1) * espaciado_celdas_px) - 2) + margen_izdo_px,
 c0049a8:	e51b3014 	ldr	r3, [fp, #-20]	; 0xffffffec
 c0049ac:	e2833001 	add	r3, r3, #1
	//para cada fila
	for (int x = 0; x < NUM_FILAS; x += 1) {
		//para cada columna
		for (int y = 0; y < NUM_FILAS; y += 1) {
			//limpiamos la celda en el lcd
			LcdClrRect(((y * espaciado_celdas_px) + 2) + margen_izdo_px,
 c0049b0:	e1a03803 	lsl	r3, r3, #16
 c0049b4:	e1a03823 	lsr	r3, r3, #16
 c0049b8:	e59f29ec 	ldr	r2, [pc, #2540]	; c0053ac <actualizarTablero+0xaf4>
 c0049bc:	e5922000 	ldr	r2, [r2]
 c0049c0:	e1a02802 	lsl	r2, r2, #16
 c0049c4:	e1a02822 	lsr	r2, r2, #16
 c0049c8:	e0030392 	mul	r3, r2, r3
 c0049cc:	e1a03803 	lsl	r3, r3, #16
 c0049d0:	e1a03823 	lsr	r3, r3, #16
 c0049d4:	e2833034 	add	r3, r3, #52	; 0x34
 c0049d8:	e1a03803 	lsl	r3, r3, #16
 c0049dc:	e1a03823 	lsr	r3, r3, #16
 c0049e0:	e1a03803 	lsl	r3, r3, #16
 c0049e4:	e1a02823 	lsr	r2, r3, #16
					((x * espaciado_celdas_px) + 2) + margen_arriba_px,
					(((y + 1) * espaciado_celdas_px) - 2) + margen_izdo_px,
					(((x + 1) * espaciado_celdas_px) - 2) + margen_arriba_px,
 c0049e8:	e51b3010 	ldr	r3, [fp, #-16]
 c0049ec:	e2833001 	add	r3, r3, #1
	//para cada fila
	for (int x = 0; x < NUM_FILAS; x += 1) {
		//para cada columna
		for (int y = 0; y < NUM_FILAS; y += 1) {
			//limpiamos la celda en el lcd
			LcdClrRect(((y * espaciado_celdas_px) + 2) + margen_izdo_px,
 c0049f0:	e1a03803 	lsl	r3, r3, #16
 c0049f4:	e1a03823 	lsr	r3, r3, #16
 c0049f8:	e59fc9ac 	ldr	ip, [pc, #2476]	; c0053ac <actualizarTablero+0xaf4>
 c0049fc:	e59cc000 	ldr	ip, [ip]
 c004a00:	e1a0c80c 	lsl	ip, ip, #16
 c004a04:	e1a0c82c 	lsr	ip, ip, #16
 c004a08:	e003039c 	mul	r3, ip, r3
 c004a0c:	e1a03803 	lsl	r3, r3, #16
 c004a10:	e1a03823 	lsr	r3, r3, #16
 c004a14:	e283300d 	add	r3, r3, #13
 c004a18:	e1a03803 	lsl	r3, r3, #16
 c004a1c:	e1a03823 	lsr	r3, r3, #16
 c004a20:	e1a03803 	lsl	r3, r3, #16
 c004a24:	e1a03823 	lsr	r3, r3, #16
 c004a28:	e1a00800 	lsl	r0, r0, #16
 c004a2c:	e1a00840 	asr	r0, r0, #16
 c004a30:	e1a01801 	lsl	r1, r1, #16
 c004a34:	e1a01841 	asr	r1, r1, #16
 c004a38:	e1a02802 	lsl	r2, r2, #16
 c004a3c:	e1a02842 	asr	r2, r2, #16
 c004a40:	e1a03803 	lsl	r3, r3, #16
 c004a44:	e1a03843 	asr	r3, r3, #16
 c004a48:	e3a0c000 	mov	ip, #0
 c004a4c:	e58dc000 	str	ip, [sp]
 c004a50:	ebfff496 	bl	c001cb0 <LcdClrRect>
					((x * espaciado_celdas_px) + 2) + margen_arriba_px,
					(((y + 1) * espaciado_celdas_px) - 2) + margen_izdo_px,
					(((x + 1) * espaciado_celdas_px) - 2) + margen_arriba_px,
					0);
			//ERROR
			if ((cuadricula[x][y] & 0x0400) != 0) {
 c004a54:	e51b3010 	ldr	r3, [fp, #-16]
 c004a58:	e1a03283 	lsl	r3, r3, #5
 c004a5c:	e51b2040 	ldr	r2, [fp, #-64]	; 0xffffffc0
 c004a60:	e0822003 	add	r2, r2, r3
 c004a64:	e51b3014 	ldr	r3, [fp, #-20]	; 0xffffffec
 c004a68:	e1a03083 	lsl	r3, r3, #1
 c004a6c:	e0823003 	add	r3, r2, r3
 c004a70:	e1d330b0 	ldrh	r3, [r3]
 c004a74:	e2033b01 	and	r3, r3, #1024	; 0x400
 c004a78:	e3530000 	cmp	r3, #0
 c004a7c:	0a000165 	beq	c005018 <actualizarTablero+0x760>
				// Invertimos colores de la celda
				LcdClrRect(((y * espaciado_celdas_px) + 2) + margen_izdo_px,
 c004a80:	e51b3014 	ldr	r3, [fp, #-20]	; 0xffffffec
 c004a84:	e1a03803 	lsl	r3, r3, #16
 c004a88:	e1a03823 	lsr	r3, r3, #16
 c004a8c:	e59f2918 	ldr	r2, [pc, #2328]	; c0053ac <actualizarTablero+0xaf4>
 c004a90:	e5922000 	ldr	r2, [r2]
 c004a94:	e1a02802 	lsl	r2, r2, #16
 c004a98:	e1a02822 	lsr	r2, r2, #16
 c004a9c:	e0030392 	mul	r3, r2, r3
 c004aa0:	e1a03803 	lsl	r3, r3, #16
 c004aa4:	e1a03823 	lsr	r3, r3, #16
 c004aa8:	e2833038 	add	r3, r3, #56	; 0x38
 c004aac:	e1a03803 	lsl	r3, r3, #16
 c004ab0:	e1a03823 	lsr	r3, r3, #16
 c004ab4:	e1a03803 	lsl	r3, r3, #16
 c004ab8:	e1a00823 	lsr	r0, r3, #16
 c004abc:	e51b3010 	ldr	r3, [fp, #-16]
 c004ac0:	e1a03803 	lsl	r3, r3, #16
 c004ac4:	e1a03823 	lsr	r3, r3, #16
 c004ac8:	e59f28dc 	ldr	r2, [pc, #2268]	; c0053ac <actualizarTablero+0xaf4>
 c004acc:	e5922000 	ldr	r2, [r2]
 c004ad0:	e1a02802 	lsl	r2, r2, #16
 c004ad4:	e1a02822 	lsr	r2, r2, #16
 c004ad8:	e0030392 	mul	r3, r2, r3
 c004adc:	e1a03803 	lsl	r3, r3, #16
 c004ae0:	e1a03823 	lsr	r3, r3, #16
 c004ae4:	e2833011 	add	r3, r3, #17
 c004ae8:	e1a03803 	lsl	r3, r3, #16
 c004aec:	e1a03823 	lsr	r3, r3, #16
 c004af0:	e1a03803 	lsl	r3, r3, #16
 c004af4:	e1a01823 	lsr	r1, r3, #16
						((x * espaciado_celdas_px) + 2) + margen_arriba_px,
						(((y + 1) * espaciado_celdas_px) - 2) + margen_izdo_px,
 c004af8:	e51b3014 	ldr	r3, [fp, #-20]	; 0xffffffec
 c004afc:	e2833001 	add	r3, r3, #1
					(((x + 1) * espaciado_celdas_px) - 2) + margen_arriba_px,
					0);
			//ERROR
			if ((cuadricula[x][y] & 0x0400) != 0) {
				// Invertimos colores de la celda
				LcdClrRect(((y * espaciado_celdas_px) + 2) + margen_izdo_px,
 c004b00:	e1a03803 	lsl	r3, r3, #16
 c004b04:	e1a03823 	lsr	r3, r3, #16
 c004b08:	e59f289c 	ldr	r2, [pc, #2204]	; c0053ac <actualizarTablero+0xaf4>
 c004b0c:	e5922000 	ldr	r2, [r2]
 c004b10:	e1a02802 	lsl	r2, r2, #16
 c004b14:	e1a02822 	lsr	r2, r2, #16
 c004b18:	e0030392 	mul	r3, r2, r3
 c004b1c:	e1a03803 	lsl	r3, r3, #16
 c004b20:	e1a03823 	lsr	r3, r3, #16
 c004b24:	e2833034 	add	r3, r3, #52	; 0x34
 c004b28:	e1a03803 	lsl	r3, r3, #16
 c004b2c:	e1a03823 	lsr	r3, r3, #16
 c004b30:	e1a03803 	lsl	r3, r3, #16
 c004b34:	e1a02823 	lsr	r2, r3, #16
						((x * espaciado_celdas_px) + 2) + margen_arriba_px,
						(((y + 1) * espaciado_celdas_px) - 2) + margen_izdo_px,
						(((x + 1) * espaciado_celdas_px) - 2)
 c004b38:	e51b3010 	ldr	r3, [fp, #-16]
 c004b3c:	e2833001 	add	r3, r3, #1
					(((x + 1) * espaciado_celdas_px) - 2) + margen_arriba_px,
					0);
			//ERROR
			if ((cuadricula[x][y] & 0x0400) != 0) {
				// Invertimos colores de la celda
				LcdClrRect(((y * espaciado_celdas_px) + 2) + margen_izdo_px,
 c004b40:	e1a03803 	lsl	r3, r3, #16
 c004b44:	e1a03823 	lsr	r3, r3, #16
 c004b48:	e59fc85c 	ldr	ip, [pc, #2140]	; c0053ac <actualizarTablero+0xaf4>
 c004b4c:	e59cc000 	ldr	ip, [ip]
 c004b50:	e1a0c80c 	lsl	ip, ip, #16
 c004b54:	e1a0c82c 	lsr	ip, ip, #16
 c004b58:	e003039c 	mul	r3, ip, r3
 c004b5c:	e1a03803 	lsl	r3, r3, #16
 c004b60:	e1a03823 	lsr	r3, r3, #16
 c004b64:	e283300d 	add	r3, r3, #13
 c004b68:	e1a03803 	lsl	r3, r3, #16
 c004b6c:	e1a03823 	lsr	r3, r3, #16
 c004b70:	e1a03803 	lsl	r3, r3, #16
 c004b74:	e1a03823 	lsr	r3, r3, #16
 c004b78:	e1a00800 	lsl	r0, r0, #16
 c004b7c:	e1a00840 	asr	r0, r0, #16
 c004b80:	e1a01801 	lsl	r1, r1, #16
 c004b84:	e1a01841 	asr	r1, r1, #16
 c004b88:	e1a02802 	lsl	r2, r2, #16
 c004b8c:	e1a02842 	asr	r2, r2, #16
 c004b90:	e1a03803 	lsl	r3, r3, #16
 c004b94:	e1a03843 	asr	r3, r3, #16
 c004b98:	e3a0c00e 	mov	ip, #14
 c004b9c:	e58dc000 	str	ip, [sp]
 c004ba0:	ebfff442 	bl	c001cb0 <LcdClrRect>
						((x * espaciado_celdas_px) + 2) + margen_arriba_px,
						(((y + 1) * espaciado_celdas_px) - 2) + margen_izdo_px,
						(((x + 1) * espaciado_celdas_px) - 2)
								+ margen_arriba_px, 14);
				valor = celda_leer_valor(cuadricula[x][y]);
 c004ba4:	e51b3010 	ldr	r3, [fp, #-16]
 c004ba8:	e1a03283 	lsl	r3, r3, #5
 c004bac:	e51b2040 	ldr	r2, [fp, #-64]	; 0xffffffc0
 c004bb0:	e0822003 	add	r2, r2, r3
 c004bb4:	e51b3014 	ldr	r3, [fp, #-20]	; 0xffffffec
 c004bb8:	e1a03083 	lsl	r3, r3, #1
 c004bbc:	e0823003 	add	r3, r2, r3
 c004bc0:	e1d330b0 	ldrh	r3, [r3]
 c004bc4:	e1a00003 	mov	r0, r3
 c004bc8:	ebfffdb9 	bl	c0042b4 <celda_leer_valor>
 c004bcc:	e1a03000 	mov	r3, r0
 c004bd0:	e14b31be 	strh	r3, [fp, #-30]	; 0xffffffe2
				//Si contiene un numero
				if (celda_leer_valor(cuadricula[x][y]) != 0) {
 c004bd4:	e51b3010 	ldr	r3, [fp, #-16]
 c004bd8:	e1a03283 	lsl	r3, r3, #5
 c004bdc:	e51b2040 	ldr	r2, [fp, #-64]	; 0xffffffc0
 c004be0:	e0822003 	add	r2, r2, r3
 c004be4:	e51b3014 	ldr	r3, [fp, #-20]	; 0xffffffec
 c004be8:	e1a03083 	lsl	r3, r3, #1
 c004bec:	e0823003 	add	r3, r2, r3
 c004bf0:	e1d330b0 	ldrh	r3, [r3]
 c004bf4:	e1a00003 	mov	r0, r3
 c004bf8:	ebfffdad 	bl	c0042b4 <celda_leer_valor>
 c004bfc:	e1a03000 	mov	r3, r0
 c004c00:	e3530000 	cmp	r3, #0
 c004c04:	0a00005b 	beq	c004d78 <actualizarTablero+0x4c0>
					itoa(valor, cadena);
 c004c08:	e59f37a0 	ldr	r3, [pc, #1952]	; c0053b0 <actualizarTablero+0xaf8>
 c004c0c:	e15b21be 	ldrh	r2, [fp, #-30]	; 0xffffffe2
 c004c10:	e1a00002 	mov	r0, r2
 c004c14:	e59f1798 	ldr	r1, [pc, #1944]	; c0053b4 <actualizarTablero+0xafc>
 c004c18:	e1a0e00f 	mov	lr, pc
 c004c1c:	e12fff13 	bx	r3
					Lcd_DspAscII8x16(
							(((y + 1) * espaciado_celdas_px)
 c004c20:	e51b3014 	ldr	r3, [fp, #-20]	; 0xffffffec
 c004c24:	e2833001 	add	r3, r3, #1
								+ margen_arriba_px, 14);
				valor = celda_leer_valor(cuadricula[x][y]);
				//Si contiene un numero
				if (celda_leer_valor(cuadricula[x][y]) != 0) {
					itoa(valor, cadena);
					Lcd_DspAscII8x16(
 c004c28:	e1a03803 	lsl	r3, r3, #16
 c004c2c:	e1a03823 	lsr	r3, r3, #16
 c004c30:	e59f2774 	ldr	r2, [pc, #1908]	; c0053ac <actualizarTablero+0xaf4>
 c004c34:	e5922000 	ldr	r2, [r2]
 c004c38:	e1a02802 	lsl	r2, r2, #16
 c004c3c:	e1a02822 	lsr	r2, r2, #16
 c004c40:	e0030392 	mul	r3, r2, r3
 c004c44:	e1a03803 	lsl	r3, r3, #16
 c004c48:	e1a02823 	lsr	r2, r3, #16
							(((y + 1) * espaciado_celdas_px)
									- espaciado_celdas_px / 2)
 c004c4c:	e59f3758 	ldr	r3, [pc, #1880]	; c0053ac <actualizarTablero+0xaf4>
 c004c50:	e5933000 	ldr	r3, [r3]
 c004c54:	e1a030a3 	lsr	r3, r3, #1
								+ margen_arriba_px, 14);
				valor = celda_leer_valor(cuadricula[x][y]);
				//Si contiene un numero
				if (celda_leer_valor(cuadricula[x][y]) != 0) {
					itoa(valor, cadena);
					Lcd_DspAscII8x16(
 c004c58:	e1a03803 	lsl	r3, r3, #16
 c004c5c:	e1a03823 	lsr	r3, r3, #16
 c004c60:	e0633002 	rsb	r3, r3, r2
 c004c64:	e1a03803 	lsl	r3, r3, #16
 c004c68:	e1a03823 	lsr	r3, r3, #16
 c004c6c:	e2833034 	add	r3, r3, #52	; 0x34
 c004c70:	e1a03803 	lsl	r3, r3, #16
 c004c74:	e1a02823 	lsr	r2, r3, #16
							(((y + 1) * espaciado_celdas_px)
									- espaciado_celdas_px / 2)
									+ (margen_izdo_px - 2),
							(((x + 1) * espaciado_celdas_px)
 c004c78:	e51b3010 	ldr	r3, [fp, #-16]
 c004c7c:	e2833001 	add	r3, r3, #1
								+ margen_arriba_px, 14);
				valor = celda_leer_valor(cuadricula[x][y]);
				//Si contiene un numero
				if (celda_leer_valor(cuadricula[x][y]) != 0) {
					itoa(valor, cadena);
					Lcd_DspAscII8x16(
 c004c80:	e1a03803 	lsl	r3, r3, #16
 c004c84:	e1a03823 	lsr	r3, r3, #16
 c004c88:	e59f171c 	ldr	r1, [pc, #1820]	; c0053ac <actualizarTablero+0xaf4>
 c004c8c:	e5911000 	ldr	r1, [r1]
 c004c90:	e1a01801 	lsl	r1, r1, #16
 c004c94:	e1a01821 	lsr	r1, r1, #16
 c004c98:	e0030391 	mul	r3, r1, r3
 c004c9c:	e1a03803 	lsl	r3, r3, #16
 c004ca0:	e1a01823 	lsr	r1, r3, #16
							(((y + 1) * espaciado_celdas_px)
									- espaciado_celdas_px / 2)
									+ (margen_izdo_px - 2),
							(((x + 1) * espaciado_celdas_px)
									- espaciado_celdas_px / 2)
 c004ca4:	e59f3700 	ldr	r3, [pc, #1792]	; c0053ac <actualizarTablero+0xaf4>
 c004ca8:	e5933000 	ldr	r3, [r3]
 c004cac:	e1a030a3 	lsr	r3, r3, #1
								+ margen_arriba_px, 14);
				valor = celda_leer_valor(cuadricula[x][y]);
				//Si contiene un numero
				if (celda_leer_valor(cuadricula[x][y]) != 0) {
					itoa(valor, cadena);
					Lcd_DspAscII8x16(
 c004cb0:	e1a03803 	lsl	r3, r3, #16
 c004cb4:	e1a03823 	lsr	r3, r3, #16
 c004cb8:	e0633001 	rsb	r3, r3, r1
 c004cbc:	e1a03803 	lsl	r3, r3, #16
 c004cc0:	e1a03823 	lsr	r3, r3, #16
 c004cc4:	e283300b 	add	r3, r3, #11
 c004cc8:	e1a03803 	lsl	r3, r3, #16
 c004ccc:	e1a03823 	lsr	r3, r3, #16
 c004cd0:	e1a00002 	mov	r0, r2
 c004cd4:	e1a01003 	mov	r1, r3
 c004cd8:	e3a02000 	mov	r2, #0
 c004cdc:	e59f36d0 	ldr	r3, [pc, #1744]	; c0053b4 <actualizarTablero+0xafc>
 c004ce0:	ebfff93a 	bl	c0031d0 <Lcd_DspAscII8x16>
									+ (margen_izdo_px - 2),
							(((x + 1) * espaciado_celdas_px)
									- espaciado_celdas_px / 2)
									+ (margen_arriba_px - 4), WHITE, cadena);
					//Si es pista la remarcamos
					if ((cuadricula[x][y] & 0x0800) != 0) {
 c004ce4:	e51b3010 	ldr	r3, [fp, #-16]
 c004ce8:	e1a03283 	lsl	r3, r3, #5
 c004cec:	e51b2040 	ldr	r2, [fp, #-64]	; 0xffffffc0
 c004cf0:	e0822003 	add	r2, r2, r3
 c004cf4:	e51b3014 	ldr	r3, [fp, #-20]	; 0xffffffec
 c004cf8:	e1a03083 	lsl	r3, r3, #1
 c004cfc:	e0823003 	add	r3, r2, r3
 c004d00:	e1d330b0 	ldrh	r3, [r3]
 c004d04:	e2033b02 	and	r3, r3, #2048	; 0x800
 c004d08:	e3530000 	cmp	r3, #0
 c004d0c:	0a000194 	beq	c005364 <actualizarTablero+0xaac>
						Lcd_Draw_Box_Pista(
								((y * espaciado_celdas_px) + 2)
 c004d10:	e51b3014 	ldr	r3, [fp, #-20]	; 0xffffffec
 c004d14:	e59f2690 	ldr	r2, [pc, #1680]	; c0053ac <actualizarTablero+0xaf4>
 c004d18:	e5922000 	ldr	r2, [r2]
 c004d1c:	e0030392 	mul	r3, r2, r3
							(((x + 1) * espaciado_celdas_px)
									- espaciado_celdas_px / 2)
									+ (margen_arriba_px - 4), WHITE, cadena);
					//Si es pista la remarcamos
					if ((cuadricula[x][y] & 0x0800) != 0) {
						Lcd_Draw_Box_Pista(
 c004d20:	e2830038 	add	r0, r3, #56	; 0x38
								((y * espaciado_celdas_px) + 2)
										+ margen_izdo_px,
								((x * espaciado_celdas_px) + 2)
 c004d24:	e51b3010 	ldr	r3, [fp, #-16]
 c004d28:	e59f267c 	ldr	r2, [pc, #1660]	; c0053ac <actualizarTablero+0xaf4>
 c004d2c:	e5922000 	ldr	r2, [r2]
 c004d30:	e0030392 	mul	r3, r2, r3
							(((x + 1) * espaciado_celdas_px)
									- espaciado_celdas_px / 2)
									+ (margen_arriba_px - 4), WHITE, cadena);
					//Si es pista la remarcamos
					if ((cuadricula[x][y] & 0x0800) != 0) {
						Lcd_Draw_Box_Pista(
 c004d34:	e2831011 	add	r1, r3, #17
								((y * espaciado_celdas_px) + 2)
										+ margen_izdo_px,
								((x * espaciado_celdas_px) + 2)
										+ margen_arriba_px,
								(((y + 1) * espaciado_celdas_px) - 2)
 c004d38:	e51b3014 	ldr	r3, [fp, #-20]	; 0xffffffec
 c004d3c:	e2833001 	add	r3, r3, #1
 c004d40:	e59f2664 	ldr	r2, [pc, #1636]	; c0053ac <actualizarTablero+0xaf4>
 c004d44:	e5922000 	ldr	r2, [r2]
 c004d48:	e0030392 	mul	r3, r2, r3
							(((x + 1) * espaciado_celdas_px)
									- espaciado_celdas_px / 2)
									+ (margen_arriba_px - 4), WHITE, cadena);
					//Si es pista la remarcamos
					if ((cuadricula[x][y] & 0x0800) != 0) {
						Lcd_Draw_Box_Pista(
 c004d4c:	e2832034 	add	r2, r3, #52	; 0x34
										+ margen_izdo_px,
								((x * espaciado_celdas_px) + 2)
										+ margen_arriba_px,
								(((y + 1) * espaciado_celdas_px) - 2)
										+ margen_izdo_px,
								(((x + 1) * espaciado_celdas_px) - 2)
 c004d50:	e51b3010 	ldr	r3, [fp, #-16]
 c004d54:	e2833001 	add	r3, r3, #1
 c004d58:	e59fc64c 	ldr	ip, [pc, #1612]	; c0053ac <actualizarTablero+0xaf4>
 c004d5c:	e59cc000 	ldr	ip, [ip]
 c004d60:	e003039c 	mul	r3, ip, r3
							(((x + 1) * espaciado_celdas_px)
									- espaciado_celdas_px / 2)
									+ (margen_arriba_px - 4), WHITE, cadena);
					//Si es pista la remarcamos
					if ((cuadricula[x][y] & 0x0800) != 0) {
						Lcd_Draw_Box_Pista(
 c004d64:	e283300d 	add	r3, r3, #13
 c004d68:	e3a0c000 	mov	ip, #0
 c004d6c:	e58dc000 	str	ip, [sp]
 c004d70:	ebfff589 	bl	c00239c <Lcd_Draw_Box_Pista>
 c004d74:	ea00017a 	b	c005364 <actualizarTablero+0xaac>
					}
				}
				//Candidatos
				else {
					// limpiar hueco
					LcdClrRect(((y * espaciado_celdas_px) + 2) + margen_izdo_px,
 c004d78:	e51b3014 	ldr	r3, [fp, #-20]	; 0xffffffec
 c004d7c:	e1a03803 	lsl	r3, r3, #16
 c004d80:	e1a03823 	lsr	r3, r3, #16
 c004d84:	e59f2620 	ldr	r2, [pc, #1568]	; c0053ac <actualizarTablero+0xaf4>
 c004d88:	e5922000 	ldr	r2, [r2]
 c004d8c:	e1a02802 	lsl	r2, r2, #16
 c004d90:	e1a02822 	lsr	r2, r2, #16
 c004d94:	e0030392 	mul	r3, r2, r3
 c004d98:	e1a03803 	lsl	r3, r3, #16
 c004d9c:	e1a03823 	lsr	r3, r3, #16
 c004da0:	e2833038 	add	r3, r3, #56	; 0x38
 c004da4:	e1a03803 	lsl	r3, r3, #16
 c004da8:	e1a03823 	lsr	r3, r3, #16
 c004dac:	e1a03803 	lsl	r3, r3, #16
 c004db0:	e1a00823 	lsr	r0, r3, #16
 c004db4:	e51b3010 	ldr	r3, [fp, #-16]
 c004db8:	e1a03803 	lsl	r3, r3, #16
 c004dbc:	e1a03823 	lsr	r3, r3, #16
 c004dc0:	e59f25e4 	ldr	r2, [pc, #1508]	; c0053ac <actualizarTablero+0xaf4>
 c004dc4:	e5922000 	ldr	r2, [r2]
 c004dc8:	e1a02802 	lsl	r2, r2, #16
 c004dcc:	e1a02822 	lsr	r2, r2, #16
 c004dd0:	e0030392 	mul	r3, r2, r3
 c004dd4:	e1a03803 	lsl	r3, r3, #16
 c004dd8:	e1a03823 	lsr	r3, r3, #16
 c004ddc:	e2833011 	add	r3, r3, #17
 c004de0:	e1a03803 	lsl	r3, r3, #16
 c004de4:	e1a03823 	lsr	r3, r3, #16
 c004de8:	e1a03803 	lsl	r3, r3, #16
 c004dec:	e1a01823 	lsr	r1, r3, #16
							((x * espaciado_celdas_px) + 2) + margen_arriba_px,
							(((y + 1) * espaciado_celdas_px) - 2)
 c004df0:	e51b3014 	ldr	r3, [fp, #-20]	; 0xffffffec
 c004df4:	e2833001 	add	r3, r3, #1
					}
				}
				//Candidatos
				else {
					// limpiar hueco
					LcdClrRect(((y * espaciado_celdas_px) + 2) + margen_izdo_px,
 c004df8:	e1a03803 	lsl	r3, r3, #16
 c004dfc:	e1a03823 	lsr	r3, r3, #16
 c004e00:	e59f25a4 	ldr	r2, [pc, #1444]	; c0053ac <actualizarTablero+0xaf4>
 c004e04:	e5922000 	ldr	r2, [r2]
 c004e08:	e1a02802 	lsl	r2, r2, #16
 c004e0c:	e1a02822 	lsr	r2, r2, #16
 c004e10:	e0030392 	mul	r3, r2, r3
 c004e14:	e1a03803 	lsl	r3, r3, #16
 c004e18:	e1a03823 	lsr	r3, r3, #16
 c004e1c:	e2833034 	add	r3, r3, #52	; 0x34
 c004e20:	e1a03803 	lsl	r3, r3, #16
 c004e24:	e1a03823 	lsr	r3, r3, #16
 c004e28:	e1a03803 	lsl	r3, r3, #16
 c004e2c:	e1a02823 	lsr	r2, r3, #16
							((x * espaciado_celdas_px) + 2) + margen_arriba_px,
							(((y + 1) * espaciado_celdas_px) - 2)
									+ margen_izdo_px,
							(((x + 1) * espaciado_celdas_px) - 2)
 c004e30:	e51b3010 	ldr	r3, [fp, #-16]
 c004e34:	e2833001 	add	r3, r3, #1
					}
				}
				//Candidatos
				else {
					// limpiar hueco
					LcdClrRect(((y * espaciado_celdas_px) + 2) + margen_izdo_px,
 c004e38:	e1a03803 	lsl	r3, r3, #16
 c004e3c:	e1a03823 	lsr	r3, r3, #16
 c004e40:	e59fc564 	ldr	ip, [pc, #1380]	; c0053ac <actualizarTablero+0xaf4>
 c004e44:	e59cc000 	ldr	ip, [ip]
 c004e48:	e1a0c80c 	lsl	ip, ip, #16
 c004e4c:	e1a0c82c 	lsr	ip, ip, #16
 c004e50:	e003039c 	mul	r3, ip, r3
 c004e54:	e1a03803 	lsl	r3, r3, #16
 c004e58:	e1a03823 	lsr	r3, r3, #16
 c004e5c:	e283300d 	add	r3, r3, #13
 c004e60:	e1a03803 	lsl	r3, r3, #16
 c004e64:	e1a03823 	lsr	r3, r3, #16
 c004e68:	e1a03803 	lsl	r3, r3, #16
 c004e6c:	e1a03823 	lsr	r3, r3, #16
 c004e70:	e1a00800 	lsl	r0, r0, #16
 c004e74:	e1a00840 	asr	r0, r0, #16
 c004e78:	e1a01801 	lsl	r1, r1, #16
 c004e7c:	e1a01841 	asr	r1, r1, #16
 c004e80:	e1a02802 	lsl	r2, r2, #16
 c004e84:	e1a02842 	asr	r2, r2, #16
 c004e88:	e1a03803 	lsl	r3, r3, #16
 c004e8c:	e1a03843 	asr	r3, r3, #16
 c004e90:	e3a0c000 	mov	ip, #0
 c004e94:	e58dc000 	str	ip, [sp]
 c004e98:	ebfff384 	bl	c001cb0 <LcdClrRect>
							((x * espaciado_celdas_px) + 2) + margen_arriba_px,
							(((y + 1) * espaciado_celdas_px) - 2)
									+ margen_izdo_px,
							(((x + 1) * espaciado_celdas_px) - 2)
									+ margen_arriba_px, 0);
					for (uint32_t i = 0; i < 9; i++) {
 c004e9c:	e3a03000 	mov	r3, #0
 c004ea0:	e50b3018 	str	r3, [fp, #-24]	; 0xffffffe8
 c004ea4:	ea000057 	b	c005008 <actualizarTablero+0x750>
						if ((cuadricula[x][y] & (1 << i)) == 0) {
 c004ea8:	e51b3010 	ldr	r3, [fp, #-16]
 c004eac:	e1a03283 	lsl	r3, r3, #5
 c004eb0:	e51b2040 	ldr	r2, [fp, #-64]	; 0xffffffc0
 c004eb4:	e0822003 	add	r2, r2, r3
 c004eb8:	e51b3014 	ldr	r3, [fp, #-20]	; 0xffffffec
 c004ebc:	e1a03083 	lsl	r3, r3, #1
 c004ec0:	e0823003 	add	r3, r2, r3
 c004ec4:	e1d330b0 	ldrh	r3, [r3]
 c004ec8:	e1a02003 	mov	r2, r3
 c004ecc:	e51b3018 	ldr	r3, [fp, #-24]	; 0xffffffe8
 c004ed0:	e1a03352 	asr	r3, r2, r3
 c004ed4:	e2033001 	and	r3, r3, #1
 c004ed8:	e3530000 	cmp	r3, #0
 c004edc:	1a000046 	bne	c004ffc <actualizarTablero+0x744>
							int desp_x = desp_table[i % 3];
 c004ee0:	e51b1018 	ldr	r1, [fp, #-24]	; 0xffffffe8
 c004ee4:	e59f34cc 	ldr	r3, [pc, #1228]	; c0053b8 <actualizarTablero+0xb00>
 c004ee8:	e0832391 	umull	r2, r3, r1, r3
 c004eec:	e1a020a3 	lsr	r2, r3, #1
 c004ef0:	e1a03002 	mov	r3, r2
 c004ef4:	e1a03083 	lsl	r3, r3, #1
 c004ef8:	e0833002 	add	r3, r3, r2
 c004efc:	e0632001 	rsb	r2, r3, r1
 c004f00:	e3e0302f 	mvn	r3, #47	; 0x2f
 c004f04:	e1a02102 	lsl	r2, r2, #2
 c004f08:	e24b100c 	sub	r1, fp, #12
 c004f0c:	e0812002 	add	r2, r1, r2
 c004f10:	e0823003 	add	r3, r2, r3
 c004f14:	e5933000 	ldr	r3, [r3]
 c004f18:	e50b3024 	str	r3, [fp, #-36]	; 0xffffffdc
							int desp_y = desp_table[i / 3];
 c004f1c:	e51b2018 	ldr	r2, [fp, #-24]	; 0xffffffe8
 c004f20:	e59f3490 	ldr	r3, [pc, #1168]	; c0053b8 <actualizarTablero+0xb00>
 c004f24:	e0831392 	umull	r1, r3, r2, r3
 c004f28:	e1a020a3 	lsr	r2, r3, #1
 c004f2c:	e3e0302f 	mvn	r3, #47	; 0x2f
 c004f30:	e1a02102 	lsl	r2, r2, #2
 c004f34:	e24b100c 	sub	r1, fp, #12
 c004f38:	e0812002 	add	r2, r1, r2
 c004f3c:	e0823003 	add	r3, r2, r3
 c004f40:	e5933000 	ldr	r3, [r3]
 c004f44:	e50b3028 	str	r3, [fp, #-40]	; 0xffffffd8
							Lcd_DspAscII8x16(
									(((y + 1) * espaciado_celdas_px)
 c004f48:	e51b3014 	ldr	r3, [fp, #-20]	; 0xffffffec
 c004f4c:	e2833001 	add	r3, r3, #1
									+ margen_arriba_px, 0);
					for (uint32_t i = 0; i < 9; i++) {
						if ((cuadricula[x][y] & (1 << i)) == 0) {
							int desp_x = desp_table[i % 3];
							int desp_y = desp_table[i / 3];
							Lcd_DspAscII8x16(
 c004f50:	e1a03803 	lsl	r3, r3, #16
 c004f54:	e1a03823 	lsr	r3, r3, #16
 c004f58:	e59f244c 	ldr	r2, [pc, #1100]	; c0053ac <actualizarTablero+0xaf4>
 c004f5c:	e5922000 	ldr	r2, [r2]
 c004f60:	e1a02802 	lsl	r2, r2, #16
 c004f64:	e1a02822 	lsr	r2, r2, #16
 c004f68:	e0030392 	mul	r3, r2, r3
 c004f6c:	e1a03803 	lsl	r3, r3, #16
 c004f70:	e1a02823 	lsr	r2, r3, #16
 c004f74:	e51b3024 	ldr	r3, [fp, #-36]	; 0xffffffdc
 c004f78:	e1a03803 	lsl	r3, r3, #16
 c004f7c:	e1a03823 	lsr	r3, r3, #16
 c004f80:	e0633002 	rsb	r3, r3, r2
 c004f84:	e1a03803 	lsl	r3, r3, #16
 c004f88:	e1a03823 	lsr	r3, r3, #16
 c004f8c:	e2833032 	add	r3, r3, #50	; 0x32
 c004f90:	e1a03803 	lsl	r3, r3, #16
 c004f94:	e1a02823 	lsr	r2, r3, #16
									(((y + 1) * espaciado_celdas_px)
											+ (margen_izdo_px - 4)) - desp_x,
									(((x + 1) * espaciado_celdas_px)
 c004f98:	e51b3010 	ldr	r3, [fp, #-16]
 c004f9c:	e2833001 	add	r3, r3, #1
									+ margen_arriba_px, 0);
					for (uint32_t i = 0; i < 9; i++) {
						if ((cuadricula[x][y] & (1 << i)) == 0) {
							int desp_x = desp_table[i % 3];
							int desp_y = desp_table[i / 3];
							Lcd_DspAscII8x16(
 c004fa0:	e1a03803 	lsl	r3, r3, #16
 c004fa4:	e1a03823 	lsr	r3, r3, #16
 c004fa8:	e59f13fc 	ldr	r1, [pc, #1020]	; c0053ac <actualizarTablero+0xaf4>
 c004fac:	e5911000 	ldr	r1, [r1]
 c004fb0:	e1a01801 	lsl	r1, r1, #16
 c004fb4:	e1a01821 	lsr	r1, r1, #16
 c004fb8:	e0030391 	mul	r3, r1, r3
 c004fbc:	e1a03803 	lsl	r3, r3, #16
 c004fc0:	e1a01823 	lsr	r1, r3, #16
 c004fc4:	e51b3028 	ldr	r3, [fp, #-40]	; 0xffffffd8
 c004fc8:	e1a03803 	lsl	r3, r3, #16
 c004fcc:	e1a03823 	lsr	r3, r3, #16
 c004fd0:	e0633001 	rsb	r3, r3, r1
 c004fd4:	e1a03803 	lsl	r3, r3, #16
 c004fd8:	e1a03823 	lsr	r3, r3, #16
 c004fdc:	e2833005 	add	r3, r3, #5
 c004fe0:	e1a03803 	lsl	r3, r3, #16
 c004fe4:	e1a03823 	lsr	r3, r3, #16
 c004fe8:	e1a00002 	mov	r0, r2
 c004fec:	e1a01003 	mov	r1, r3
 c004ff0:	e3a0200f 	mov	r2, #15
 c004ff4:	e59f33c0 	ldr	r3, [pc, #960]	; c0053bc <actualizarTablero+0xb04>
 c004ff8:	ebfff874 	bl	c0031d0 <Lcd_DspAscII8x16>
							((x * espaciado_celdas_px) + 2) + margen_arriba_px,
							(((y + 1) * espaciado_celdas_px) - 2)
									+ margen_izdo_px,
							(((x + 1) * espaciado_celdas_px) - 2)
									+ margen_arriba_px, 0);
					for (uint32_t i = 0; i < 9; i++) {
 c004ffc:	e51b3018 	ldr	r3, [fp, #-24]	; 0xffffffe8
 c005000:	e2833001 	add	r3, r3, #1
 c005004:	e50b3018 	str	r3, [fp, #-24]	; 0xffffffe8
 c005008:	e51b3018 	ldr	r3, [fp, #-24]	; 0xffffffe8
 c00500c:	e3530008 	cmp	r3, #8
 c005010:	9affffa4 	bls	c004ea8 <actualizarTablero+0x5f0>
 c005014:	ea0000d2 	b	c005364 <actualizarTablero+0xaac>

			}
			// NO ERROR
			else {
				//Si contiene un numero
				if (celda_leer_valor(cuadricula[x][y]) != 0) {
 c005018:	e51b3010 	ldr	r3, [fp, #-16]
 c00501c:	e1a03283 	lsl	r3, r3, #5
 c005020:	e51b2040 	ldr	r2, [fp, #-64]	; 0xffffffc0
 c005024:	e0822003 	add	r2, r2, r3
 c005028:	e51b3014 	ldr	r3, [fp, #-20]	; 0xffffffec
 c00502c:	e1a03083 	lsl	r3, r3, #1
 c005030:	e0823003 	add	r3, r2, r3
 c005034:	e1d330b0 	ldrh	r3, [r3]
 c005038:	e1a00003 	mov	r0, r3
 c00503c:	ebfffc9c 	bl	c0042b4 <celda_leer_valor>
 c005040:	e1a03000 	mov	r3, r0
 c005044:	e3530000 	cmp	r3, #0
 c005048:	0a000067 	beq	c0051ec <actualizarTablero+0x934>
					valor = celda_leer_valor(cuadricula[x][y]);
 c00504c:	e51b3010 	ldr	r3, [fp, #-16]
 c005050:	e1a03283 	lsl	r3, r3, #5
 c005054:	e51b2040 	ldr	r2, [fp, #-64]	; 0xffffffc0
 c005058:	e0822003 	add	r2, r2, r3
 c00505c:	e51b3014 	ldr	r3, [fp, #-20]	; 0xffffffec
 c005060:	e1a03083 	lsl	r3, r3, #1
 c005064:	e0823003 	add	r3, r2, r3
 c005068:	e1d330b0 	ldrh	r3, [r3]
 c00506c:	e1a00003 	mov	r0, r3
 c005070:	ebfffc8f 	bl	c0042b4 <celda_leer_valor>
 c005074:	e1a03000 	mov	r3, r0
 c005078:	e14b31be 	strh	r3, [fp, #-30]	; 0xffffffe2
					itoa(valor, cadena);
 c00507c:	e59f332c 	ldr	r3, [pc, #812]	; c0053b0 <actualizarTablero+0xaf8>
 c005080:	e15b21be 	ldrh	r2, [fp, #-30]	; 0xffffffe2
 c005084:	e1a00002 	mov	r0, r2
 c005088:	e59f1324 	ldr	r1, [pc, #804]	; c0053b4 <actualizarTablero+0xafc>
 c00508c:	e1a0e00f 	mov	lr, pc
 c005090:	e12fff13 	bx	r3
					Lcd_DspAscII8x16(
							(((y + 1) * espaciado_celdas_px)
 c005094:	e51b3014 	ldr	r3, [fp, #-20]	; 0xffffffec
 c005098:	e2833001 	add	r3, r3, #1
			else {
				//Si contiene un numero
				if (celda_leer_valor(cuadricula[x][y]) != 0) {
					valor = celda_leer_valor(cuadricula[x][y]);
					itoa(valor, cadena);
					Lcd_DspAscII8x16(
 c00509c:	e1a03803 	lsl	r3, r3, #16
 c0050a0:	e1a03823 	lsr	r3, r3, #16
 c0050a4:	e59f2300 	ldr	r2, [pc, #768]	; c0053ac <actualizarTablero+0xaf4>
 c0050a8:	e5922000 	ldr	r2, [r2]
 c0050ac:	e1a02802 	lsl	r2, r2, #16
 c0050b0:	e1a02822 	lsr	r2, r2, #16
 c0050b4:	e0030392 	mul	r3, r2, r3
 c0050b8:	e1a03803 	lsl	r3, r3, #16
 c0050bc:	e1a02823 	lsr	r2, r3, #16
							(((y + 1) * espaciado_celdas_px)
									- espaciado_celdas_px / 2)
 c0050c0:	e59f32e4 	ldr	r3, [pc, #740]	; c0053ac <actualizarTablero+0xaf4>
 c0050c4:	e5933000 	ldr	r3, [r3]
 c0050c8:	e1a030a3 	lsr	r3, r3, #1
			else {
				//Si contiene un numero
				if (celda_leer_valor(cuadricula[x][y]) != 0) {
					valor = celda_leer_valor(cuadricula[x][y]);
					itoa(valor, cadena);
					Lcd_DspAscII8x16(
 c0050cc:	e1a03803 	lsl	r3, r3, #16
 c0050d0:	e1a03823 	lsr	r3, r3, #16
 c0050d4:	e0633002 	rsb	r3, r3, r2
 c0050d8:	e1a03803 	lsl	r3, r3, #16
 c0050dc:	e1a03823 	lsr	r3, r3, #16
 c0050e0:	e2833034 	add	r3, r3, #52	; 0x34
 c0050e4:	e1a03803 	lsl	r3, r3, #16
 c0050e8:	e1a02823 	lsr	r2, r3, #16
							(((y + 1) * espaciado_celdas_px)
									- espaciado_celdas_px / 2)
									+ (margen_izdo_px - 2),
							(((x + 1) * espaciado_celdas_px)
 c0050ec:	e51b3010 	ldr	r3, [fp, #-16]
 c0050f0:	e2833001 	add	r3, r3, #1
			else {
				//Si contiene un numero
				if (celda_leer_valor(cuadricula[x][y]) != 0) {
					valor = celda_leer_valor(cuadricula[x][y]);
					itoa(valor, cadena);
					Lcd_DspAscII8x16(
 c0050f4:	e1a03803 	lsl	r3, r3, #16
 c0050f8:	e1a03823 	lsr	r3, r3, #16
 c0050fc:	e59f12a8 	ldr	r1, [pc, #680]	; c0053ac <actualizarTablero+0xaf4>
 c005100:	e5911000 	ldr	r1, [r1]
 c005104:	e1a01801 	lsl	r1, r1, #16
 c005108:	e1a01821 	lsr	r1, r1, #16
 c00510c:	e0030391 	mul	r3, r1, r3
 c005110:	e1a03803 	lsl	r3, r3, #16
 c005114:	e1a01823 	lsr	r1, r3, #16
							(((y + 1) * espaciado_celdas_px)
									- espaciado_celdas_px / 2)
									+ (margen_izdo_px - 2),
							(((x + 1) * espaciado_celdas_px)
									- espaciado_celdas_px / 2)
 c005118:	e59f328c 	ldr	r3, [pc, #652]	; c0053ac <actualizarTablero+0xaf4>
 c00511c:	e5933000 	ldr	r3, [r3]
 c005120:	e1a030a3 	lsr	r3, r3, #1
			else {
				//Si contiene un numero
				if (celda_leer_valor(cuadricula[x][y]) != 0) {
					valor = celda_leer_valor(cuadricula[x][y]);
					itoa(valor, cadena);
					Lcd_DspAscII8x16(
 c005124:	e1a03803 	lsl	r3, r3, #16
 c005128:	e1a03823 	lsr	r3, r3, #16
 c00512c:	e0633001 	rsb	r3, r3, r1
 c005130:	e1a03803 	lsl	r3, r3, #16
 c005134:	e1a03823 	lsr	r3, r3, #16
 c005138:	e283300b 	add	r3, r3, #11
 c00513c:	e1a03803 	lsl	r3, r3, #16
 c005140:	e1a03823 	lsr	r3, r3, #16
 c005144:	e1a00002 	mov	r0, r2
 c005148:	e1a01003 	mov	r1, r3
 c00514c:	e3a0200f 	mov	r2, #15
 c005150:	e59f325c 	ldr	r3, [pc, #604]	; c0053b4 <actualizarTablero+0xafc>
 c005154:	ebfff81d 	bl	c0031d0 <Lcd_DspAscII8x16>
									+ (margen_izdo_px - 2),
							(((x + 1) * espaciado_celdas_px)
									- espaciado_celdas_px / 2)
									+ (margen_arriba_px - 4), BLACK, cadena);
					//Si es pista la remarcamos
					if ((cuadricula[x][y] & 0x0800) != 0) {
 c005158:	e51b3010 	ldr	r3, [fp, #-16]
 c00515c:	e1a03283 	lsl	r3, r3, #5
 c005160:	e51b2040 	ldr	r2, [fp, #-64]	; 0xffffffc0
 c005164:	e0822003 	add	r2, r2, r3
 c005168:	e51b3014 	ldr	r3, [fp, #-20]	; 0xffffffec
 c00516c:	e1a03083 	lsl	r3, r3, #1
 c005170:	e0823003 	add	r3, r2, r3
 c005174:	e1d330b0 	ldrh	r3, [r3]
 c005178:	e2033b02 	and	r3, r3, #2048	; 0x800
 c00517c:	e3530000 	cmp	r3, #0
 c005180:	0a000077 	beq	c005364 <actualizarTablero+0xaac>
						Lcd_Draw_Box_Pista(
								((y * espaciado_celdas_px) + 2)
 c005184:	e51b3014 	ldr	r3, [fp, #-20]	; 0xffffffec
 c005188:	e59f221c 	ldr	r2, [pc, #540]	; c0053ac <actualizarTablero+0xaf4>
 c00518c:	e5922000 	ldr	r2, [r2]
 c005190:	e0030392 	mul	r3, r2, r3
							(((x + 1) * espaciado_celdas_px)
									- espaciado_celdas_px / 2)
									+ (margen_arriba_px - 4), BLACK, cadena);
					//Si es pista la remarcamos
					if ((cuadricula[x][y] & 0x0800) != 0) {
						Lcd_Draw_Box_Pista(
 c005194:	e2830038 	add	r0, r3, #56	; 0x38
								((y * espaciado_celdas_px) + 2)
										+ margen_izdo_px,
								((x * espaciado_celdas_px) + 2)
 c005198:	e51b3010 	ldr	r3, [fp, #-16]
 c00519c:	e59f2208 	ldr	r2, [pc, #520]	; c0053ac <actualizarTablero+0xaf4>
 c0051a0:	e5922000 	ldr	r2, [r2]
 c0051a4:	e0030392 	mul	r3, r2, r3
							(((x + 1) * espaciado_celdas_px)
									- espaciado_celdas_px / 2)
									+ (margen_arriba_px - 4), BLACK, cadena);
					//Si es pista la remarcamos
					if ((cuadricula[x][y] & 0x0800) != 0) {
						Lcd_Draw_Box_Pista(
 c0051a8:	e2831011 	add	r1, r3, #17
								((y * espaciado_celdas_px) + 2)
										+ margen_izdo_px,
								((x * espaciado_celdas_px) + 2)
										+ margen_arriba_px,
								(((y + 1) * espaciado_celdas_px) - 2)
 c0051ac:	e51b3014 	ldr	r3, [fp, #-20]	; 0xffffffec
 c0051b0:	e2833001 	add	r3, r3, #1
 c0051b4:	e59f21f0 	ldr	r2, [pc, #496]	; c0053ac <actualizarTablero+0xaf4>
 c0051b8:	e5922000 	ldr	r2, [r2]
 c0051bc:	e0030392 	mul	r3, r2, r3
							(((x + 1) * espaciado_celdas_px)
									- espaciado_celdas_px / 2)
									+ (margen_arriba_px - 4), BLACK, cadena);
					//Si es pista la remarcamos
					if ((cuadricula[x][y] & 0x0800) != 0) {
						Lcd_Draw_Box_Pista(
 c0051c0:	e2832034 	add	r2, r3, #52	; 0x34
										+ margen_izdo_px,
								((x * espaciado_celdas_px) + 2)
										+ margen_arriba_px,
								(((y + 1) * espaciado_celdas_px) - 2)
										+ margen_izdo_px,
								(((x + 1) * espaciado_celdas_px) - 2)
 c0051c4:	e51b3010 	ldr	r3, [fp, #-16]
 c0051c8:	e2833001 	add	r3, r3, #1
 c0051cc:	e59fc1d8 	ldr	ip, [pc, #472]	; c0053ac <actualizarTablero+0xaf4>
 c0051d0:	e59cc000 	ldr	ip, [ip]
 c0051d4:	e003039c 	mul	r3, ip, r3
							(((x + 1) * espaciado_celdas_px)
									- espaciado_celdas_px / 2)
									+ (margen_arriba_px - 4), BLACK, cadena);
					//Si es pista la remarcamos
					if ((cuadricula[x][y] & 0x0800) != 0) {
						Lcd_Draw_Box_Pista(
 c0051d8:	e283300d 	add	r3, r3, #13
 c0051dc:	e3a0c00e 	mov	ip, #14
 c0051e0:	e58dc000 	str	ip, [sp]
 c0051e4:	ebfff46c 	bl	c00239c <Lcd_Draw_Box_Pista>
 c0051e8:	ea00005d 	b	c005364 <actualizarTablero+0xaac>
					}

				}
				//Candidatos
				else {
					for (uint32_t i = 0; i < 9; i++) {
 c0051ec:	e3a03000 	mov	r3, #0
 c0051f0:	e50b301c 	str	r3, [fp, #-28]	; 0xffffffe4
 c0051f4:	ea000057 	b	c005358 <actualizarTablero+0xaa0>
						if ((cuadricula[x][y] & (1 << i)) == 0) {
 c0051f8:	e51b3010 	ldr	r3, [fp, #-16]
 c0051fc:	e1a03283 	lsl	r3, r3, #5
 c005200:	e51b2040 	ldr	r2, [fp, #-64]	; 0xffffffc0
 c005204:	e0822003 	add	r2, r2, r3
 c005208:	e51b3014 	ldr	r3, [fp, #-20]	; 0xffffffec
 c00520c:	e1a03083 	lsl	r3, r3, #1
 c005210:	e0823003 	add	r3, r2, r3
 c005214:	e1d330b0 	ldrh	r3, [r3]
 c005218:	e1a02003 	mov	r2, r3
 c00521c:	e51b301c 	ldr	r3, [fp, #-28]	; 0xffffffe4
 c005220:	e1a03352 	asr	r3, r2, r3
 c005224:	e2033001 	and	r3, r3, #1
 c005228:	e3530000 	cmp	r3, #0
 c00522c:	1a000046 	bne	c00534c <actualizarTablero+0xa94>
							int desp_x = desp_table[i % 3];
 c005230:	e51b101c 	ldr	r1, [fp, #-28]	; 0xffffffe4
 c005234:	e59f317c 	ldr	r3, [pc, #380]	; c0053b8 <actualizarTablero+0xb00>
 c005238:	e0832391 	umull	r2, r3, r1, r3
 c00523c:	e1a020a3 	lsr	r2, r3, #1
 c005240:	e1a03002 	mov	r3, r2
 c005244:	e1a03083 	lsl	r3, r3, #1
 c005248:	e0833002 	add	r3, r3, r2
 c00524c:	e0632001 	rsb	r2, r3, r1
 c005250:	e3e0302f 	mvn	r3, #47	; 0x2f
 c005254:	e1a02102 	lsl	r2, r2, #2
 c005258:	e24b100c 	sub	r1, fp, #12
 c00525c:	e0812002 	add	r2, r1, r2
 c005260:	e0823003 	add	r3, r2, r3
 c005264:	e5933000 	ldr	r3, [r3]
 c005268:	e50b302c 	str	r3, [fp, #-44]	; 0xffffffd4
							int desp_y = desp_table[i / 3];
 c00526c:	e51b201c 	ldr	r2, [fp, #-28]	; 0xffffffe4
 c005270:	e59f3140 	ldr	r3, [pc, #320]	; c0053b8 <actualizarTablero+0xb00>
 c005274:	e0831392 	umull	r1, r3, r2, r3
 c005278:	e1a020a3 	lsr	r2, r3, #1
 c00527c:	e3e0302f 	mvn	r3, #47	; 0x2f
 c005280:	e1a02102 	lsl	r2, r2, #2
 c005284:	e24b100c 	sub	r1, fp, #12
 c005288:	e0812002 	add	r2, r1, r2
 c00528c:	e0823003 	add	r3, r2, r3
 c005290:	e5933000 	ldr	r3, [r3]
 c005294:	e50b3030 	str	r3, [fp, #-48]	; 0xffffffd0
							Lcd_DspAscII8x16(
									(((y + 1) * espaciado_celdas_px)
 c005298:	e51b3014 	ldr	r3, [fp, #-20]	; 0xffffffec
 c00529c:	e2833001 	add	r3, r3, #1
				else {
					for (uint32_t i = 0; i < 9; i++) {
						if ((cuadricula[x][y] & (1 << i)) == 0) {
							int desp_x = desp_table[i % 3];
							int desp_y = desp_table[i / 3];
							Lcd_DspAscII8x16(
 c0052a0:	e1a03803 	lsl	r3, r3, #16
 c0052a4:	e1a03823 	lsr	r3, r3, #16
 c0052a8:	e59f20fc 	ldr	r2, [pc, #252]	; c0053ac <actualizarTablero+0xaf4>
 c0052ac:	e5922000 	ldr	r2, [r2]
 c0052b0:	e1a02802 	lsl	r2, r2, #16
 c0052b4:	e1a02822 	lsr	r2, r2, #16
 c0052b8:	e0030392 	mul	r3, r2, r3
 c0052bc:	e1a03803 	lsl	r3, r3, #16
 c0052c0:	e1a02823 	lsr	r2, r3, #16
 c0052c4:	e51b302c 	ldr	r3, [fp, #-44]	; 0xffffffd4
 c0052c8:	e1a03803 	lsl	r3, r3, #16
 c0052cc:	e1a03823 	lsr	r3, r3, #16
 c0052d0:	e0633002 	rsb	r3, r3, r2
 c0052d4:	e1a03803 	lsl	r3, r3, #16
 c0052d8:	e1a03823 	lsr	r3, r3, #16
 c0052dc:	e2833032 	add	r3, r3, #50	; 0x32
 c0052e0:	e1a03803 	lsl	r3, r3, #16
 c0052e4:	e1a02823 	lsr	r2, r3, #16
									(((y + 1) * espaciado_celdas_px)
											+ (margen_izdo_px - 4)) - desp_x,
									(((x + 1) * espaciado_celdas_px)
 c0052e8:	e51b3010 	ldr	r3, [fp, #-16]
 c0052ec:	e2833001 	add	r3, r3, #1
				else {
					for (uint32_t i = 0; i < 9; i++) {
						if ((cuadricula[x][y] & (1 << i)) == 0) {
							int desp_x = desp_table[i % 3];
							int desp_y = desp_table[i / 3];
							Lcd_DspAscII8x16(
 c0052f0:	e1a03803 	lsl	r3, r3, #16
 c0052f4:	e1a03823 	lsr	r3, r3, #16
 c0052f8:	e59f10ac 	ldr	r1, [pc, #172]	; c0053ac <actualizarTablero+0xaf4>
 c0052fc:	e5911000 	ldr	r1, [r1]
 c005300:	e1a01801 	lsl	r1, r1, #16
 c005304:	e1a01821 	lsr	r1, r1, #16
 c005308:	e0030391 	mul	r3, r1, r3
 c00530c:	e1a03803 	lsl	r3, r3, #16
 c005310:	e1a01823 	lsr	r1, r3, #16
 c005314:	e51b3030 	ldr	r3, [fp, #-48]	; 0xffffffd0
 c005318:	e1a03803 	lsl	r3, r3, #16
 c00531c:	e1a03823 	lsr	r3, r3, #16
 c005320:	e0633001 	rsb	r3, r3, r1
 c005324:	e1a03803 	lsl	r3, r3, #16
 c005328:	e1a03823 	lsr	r3, r3, #16
 c00532c:	e2833005 	add	r3, r3, #5
 c005330:	e1a03803 	lsl	r3, r3, #16
 c005334:	e1a03823 	lsr	r3, r3, #16
 c005338:	e1a00002 	mov	r0, r2
 c00533c:	e1a01003 	mov	r1, r3
 c005340:	e3a0200f 	mov	r2, #15
 c005344:	e59f3070 	ldr	r3, [pc, #112]	; c0053bc <actualizarTablero+0xb04>
 c005348:	ebfff7a0 	bl	c0031d0 <Lcd_DspAscII8x16>
					}

				}
				//Candidatos
				else {
					for (uint32_t i = 0; i < 9; i++) {
 c00534c:	e51b301c 	ldr	r3, [fp, #-28]	; 0xffffffe4
 c005350:	e2833001 	add	r3, r3, #1
 c005354:	e50b301c 	str	r3, [fp, #-28]	; 0xffffffe4
 c005358:	e51b301c 	ldr	r3, [fp, #-28]	; 0xffffffe4
 c00535c:	e3530008 	cmp	r3, #8
 c005360:	9affffa4 	bls	c0051f8 <actualizarTablero+0x940>
					}

				}
			}

			Lcd_Dma_Trans();
 c005364:	ebfff8ab 	bl	c003618 <Lcd_Dma_Trans>
			espaciado_candidatos_px * 3, espaciado_candidatos_px };
	uint16_t valor = 0;
	//para cada fila
	for (int x = 0; x < NUM_FILAS; x += 1) {
		//para cada columna
		for (int y = 0; y < NUM_FILAS; y += 1) {
 c005368:	e51b3014 	ldr	r3, [fp, #-20]	; 0xffffffec
 c00536c:	e2833001 	add	r3, r3, #1
 c005370:	e50b3014 	str	r3, [fp, #-20]	; 0xffffffec
 c005374:	e51b3014 	ldr	r3, [fp, #-20]	; 0xffffffec
 c005378:	e3530008 	cmp	r3, #8
 c00537c:	dafffd6b 	ble	c004930 <actualizarTablero+0x78>
void actualizarTablero(CELDA cuadricula[NUM_FILAS][NUM_COLUMNAS]) {
	const int desp_table[3] = { espaciado_candidatos_px * 5,
			espaciado_candidatos_px * 3, espaciado_candidatos_px };
	uint16_t valor = 0;
	//para cada fila
	for (int x = 0; x < NUM_FILAS; x += 1) {
 c005380:	e51b3010 	ldr	r3, [fp, #-16]
 c005384:	e2833001 	add	r3, r3, #1
 c005388:	e50b3010 	str	r3, [fp, #-16]
 c00538c:	e51b3010 	ldr	r3, [fp, #-16]
 c005390:	e3530008 	cmp	r3, #8
 c005394:	dafffd62 	ble	c004924 <actualizarTablero+0x6c>
			Lcd_Dma_Trans();

		}
	}
	// Marcamos las lineas
	Lcd_PintarLineas();
 c005398:	ebfff9f6 	bl	c003b78 <Lcd_PintarLineas>
}
 c00539c:	e24bd00c 	sub	sp, fp, #12
 c0053a0:	e89d6800 	ldm	sp, {fp, sp, lr}
 c0053a4:	e12fff1e 	bx	lr
 c0053a8:	0c006688 	.word	0x0c006688
 c0053ac:	0c006684 	.word	0x0c006684
 c0053b0:	0c0053c0 	.word	0x0c0053c0
 c0053b4:	0c007a1c 	.word	0x0c007a1c
 c0053b8:	aaaaaaab 	.word	0xaaaaaaab
 c0053bc:	0c0079d4 	.word	0x0c0079d4

0c0053c0 <itoa>:

/**
 * Transforma un entero en una cadena de caracteres para poder mostrar
 * enteros en el LCD
 */
void itoa(int n, char* nF) {
 c0053c0:	e1a0c00d 	mov	ip, sp
 c0053c4:	e92dd800 	push	{fp, ip, lr, pc}
 c0053c8:	e24cb004 	sub	fp, ip, #4
 c0053cc:	e24dd010 	sub	sp, sp, #16
 c0053d0:	e50b0018 	str	r0, [fp, #-24]	; 0xffffffe8
 c0053d4:	e50b101c 	str	r1, [fp, #-28]	; 0xffffffe4
	int i = 0;
 c0053d8:	e3a03000 	mov	r3, #0
 c0053dc:	e50b3010 	str	r3, [fp, #-16]
	if (n == 0) {
 c0053e0:	e51b3018 	ldr	r3, [fp, #-24]	; 0xffffffe8
 c0053e4:	e3530000 	cmp	r3, #0
 c0053e8:	1a000024 	bne	c005480 <itoa+0xc0>
		nF[i++] = '0';
 c0053ec:	e51b3010 	ldr	r3, [fp, #-16]
 c0053f0:	e51b201c 	ldr	r2, [fp, #-28]	; 0xffffffe4
 c0053f4:	e0823003 	add	r3, r2, r3
 c0053f8:	e3a02030 	mov	r2, #48	; 0x30
 c0053fc:	e5c32000 	strb	r2, [r3]
 c005400:	e51b3010 	ldr	r3, [fp, #-16]
 c005404:	e2833001 	add	r3, r3, #1
 c005408:	e50b3010 	str	r3, [fp, #-16]
	}
	while (n > 0) {
 c00540c:	ea00001b 	b	c005480 <itoa+0xc0>
		nF[i++] = '0' + n % 10;
 c005410:	e51b3010 	ldr	r3, [fp, #-16]
 c005414:	e51b201c 	ldr	r2, [fp, #-28]	; 0xffffffe4
 c005418:	e0820003 	add	r0, r2, r3
 c00541c:	e51b1018 	ldr	r1, [fp, #-24]	; 0xffffffe8
 c005420:	e59f3084 	ldr	r3, [pc, #132]	; c0054ac <itoa+0xec>
 c005424:	e0c32391 	smull	r2, r3, r1, r3
 c005428:	e1a02143 	asr	r2, r3, #2
 c00542c:	e1a03fc1 	asr	r3, r1, #31
 c005430:	e0632002 	rsb	r2, r3, r2
 c005434:	e1a03002 	mov	r3, r2
 c005438:	e1a03103 	lsl	r3, r3, #2
 c00543c:	e0833002 	add	r3, r3, r2
 c005440:	e1a03083 	lsl	r3, r3, #1
 c005444:	e0632001 	rsb	r2, r3, r1
 c005448:	e20230ff 	and	r3, r2, #255	; 0xff
 c00544c:	e2833030 	add	r3, r3, #48	; 0x30
 c005450:	e20330ff 	and	r3, r3, #255	; 0xff
 c005454:	e5c03000 	strb	r3, [r0]
 c005458:	e51b3010 	ldr	r3, [fp, #-16]
 c00545c:	e2833001 	add	r3, r3, #1
 c005460:	e50b3010 	str	r3, [fp, #-16]
		n /= 10;
 c005464:	e51b3018 	ldr	r3, [fp, #-24]	; 0xffffffe8
 c005468:	e59f203c 	ldr	r2, [pc, #60]	; c0054ac <itoa+0xec>
 c00546c:	e0c21293 	smull	r1, r2, r3, r2
 c005470:	e1a02142 	asr	r2, r2, #2
 c005474:	e1a03fc3 	asr	r3, r3, #31
 c005478:	e0633002 	rsb	r3, r3, r2
 c00547c:	e50b3018 	str	r3, [fp, #-24]	; 0xffffffe8
void itoa(int n, char* nF) {
	int i = 0;
	if (n == 0) {
		nF[i++] = '0';
	}
	while (n > 0) {
 c005480:	e51b3018 	ldr	r3, [fp, #-24]	; 0xffffffe8
 c005484:	e3530000 	cmp	r3, #0
 c005488:	caffffe0 	bgt	c005410 <itoa+0x50>
		nF[i++] = '0' + n % 10;
		n /= 10;
	}
	nF[i] = '\0';
 c00548c:	e51b3010 	ldr	r3, [fp, #-16]
 c005490:	e51b201c 	ldr	r2, [fp, #-28]	; 0xffffffe4
 c005494:	e0823003 	add	r3, r2, r3
 c005498:	e3a02000 	mov	r2, #0
 c00549c:	e5c32000 	strb	r2, [r3]
}
 c0054a0:	e24bd00c 	sub	sp, fp, #12
 c0054a4:	e89d6800 	ldm	sp, {fp, sp, lr}
 c0054a8:	e12fff1e 	bx	lr
 c0054ac:	66666667 	.word	0x66666667

0c0054b0 <pintarSeg>:

/**
 *
 */
void pintarSeg() {
 c0054b0:	e1a0c00d 	mov	ip, sp
 c0054b4:	e92dd800 	push	{fp, ip, lr, pc}
 c0054b8:	e24cb004 	sub	fp, ip, #4
 c0054bc:	e24dd038 	sub	sp, sp, #56	; 0x38
	char salida2[32] = { 0 };
 c0054c0:	e24b3038 	sub	r3, fp, #56	; 0x38
 c0054c4:	e3a02000 	mov	r2, #0
 c0054c8:	e5832000 	str	r2, [r3]
 c0054cc:	e2833004 	add	r3, r3, #4
 c0054d0:	e3a02000 	mov	r2, #0
 c0054d4:	e5832000 	str	r2, [r3]
 c0054d8:	e2833004 	add	r3, r3, #4
 c0054dc:	e3a02000 	mov	r2, #0
 c0054e0:	e5832000 	str	r2, [r3]
 c0054e4:	e2833004 	add	r3, r3, #4
 c0054e8:	e3a02000 	mov	r2, #0
 c0054ec:	e5832000 	str	r2, [r3]
 c0054f0:	e2833004 	add	r3, r3, #4
 c0054f4:	e3a02000 	mov	r2, #0
 c0054f8:	e5832000 	str	r2, [r3]
 c0054fc:	e2833004 	add	r3, r3, #4
 c005500:	e3a02000 	mov	r2, #0
 c005504:	e5832000 	str	r2, [r3]
 c005508:	e2833004 	add	r3, r3, #4
 c00550c:	e3a02000 	mov	r2, #0
 c005510:	e5832000 	str	r2, [r3]
 c005514:	e2833004 	add	r3, r3, #4
 c005518:	e3a02000 	mov	r2, #0
 c00551c:	e5832000 	str	r2, [r3]
 c005520:	e2833004 	add	r3, r3, #4
	int largo, i, x;
	// Tiempo total
	LcdClrRect(105, 0, 146, 12, 0); // limpiamos total lcd
 c005524:	e3a03000 	mov	r3, #0
 c005528:	e58d3000 	str	r3, [sp]
 c00552c:	e3a00069 	mov	r0, #105	; 0x69
 c005530:	e3a01000 	mov	r1, #0
 c005534:	e3a02092 	mov	r2, #146	; 0x92
 c005538:	e3a0300c 	mov	r3, #12
 c00553c:	ebfff1db 	bl	c001cb0 <LcdClrRect>
	tiempoTotal = (timer2_Leer() / 1000);
 c005540:	eb00030e 	bl	c006180 <timer2_Leer>
 c005544:	e1a02000 	mov	r2, r0
 c005548:	e59f30b8 	ldr	r3, [pc, #184]	; c005608 <pintarSeg+0x158>
 c00554c:	e0830392 	umull	r0, r3, r2, r3
 c005550:	e1a02323 	lsr	r2, r3, #6
 c005554:	e59f30b0 	ldr	r3, [pc, #176]	; c00560c <pintarSeg+0x15c>
 c005558:	e5832000 	str	r2, [r3]
	itoa(tiempoTotal, cadena);
 c00555c:	e59f30a8 	ldr	r3, [pc, #168]	; c00560c <pintarSeg+0x15c>
 c005560:	e5933000 	ldr	r3, [r3]
 c005564:	e1a00003 	mov	r0, r3
 c005568:	e59f10a0 	ldr	r1, [pc, #160]	; c005610 <pintarSeg+0x160>
 c00556c:	ebffff93 	bl	c0053c0 <itoa>
	// invertimos la cadena
	largo = strlen(cadena) - 1;
 c005570:	e59f0098 	ldr	r0, [pc, #152]	; c005610 <pintarSeg+0x160>
 c005574:	eb0003c5 	bl	c006490 <strlen>
 c005578:	e1a03000 	mov	r3, r0
 c00557c:	e2433001 	sub	r3, r3, #1
 c005580:	e50b3018 	str	r3, [fp, #-24]	; 0xffffffe8
	for (i = largo, x = 0; i >= 0; i--, x++)
 c005584:	e51b3018 	ldr	r3, [fp, #-24]	; 0xffffffe8
 c005588:	e50b3010 	str	r3, [fp, #-16]
 c00558c:	e3a03000 	mov	r3, #0
 c005590:	e50b3014 	str	r3, [fp, #-20]	; 0xffffffec
 c005594:	ea00000f 	b	c0055d8 <pintarSeg+0x128>
		salida2[x] = cadena[i];
 c005598:	e59f2070 	ldr	r2, [pc, #112]	; c005610 <pintarSeg+0x160>
 c00559c:	e51b3010 	ldr	r3, [fp, #-16]
 c0055a0:	e0823003 	add	r3, r2, r3
 c0055a4:	e5d32000 	ldrb	r2, [r3]
 c0055a8:	e3e0302b 	mvn	r3, #43	; 0x2b
 c0055ac:	e51b1014 	ldr	r1, [fp, #-20]	; 0xffffffec
 c0055b0:	e24b000c 	sub	r0, fp, #12
 c0055b4:	e0801001 	add	r1, r0, r1
 c0055b8:	e0813003 	add	r3, r1, r3
 c0055bc:	e5c32000 	strb	r2, [r3]
	LcdClrRect(105, 0, 146, 12, 0); // limpiamos total lcd
	tiempoTotal = (timer2_Leer() / 1000);
	itoa(tiempoTotal, cadena);
	// invertimos la cadena
	largo = strlen(cadena) - 1;
	for (i = largo, x = 0; i >= 0; i--, x++)
 c0055c0:	e51b3010 	ldr	r3, [fp, #-16]
 c0055c4:	e2433001 	sub	r3, r3, #1
 c0055c8:	e50b3010 	str	r3, [fp, #-16]
 c0055cc:	e51b3014 	ldr	r3, [fp, #-20]	; 0xffffffec
 c0055d0:	e2833001 	add	r3, r3, #1
 c0055d4:	e50b3014 	str	r3, [fp, #-20]	; 0xffffffec
 c0055d8:	e51b3010 	ldr	r3, [fp, #-16]
 c0055dc:	e3530000 	cmp	r3, #0
 c0055e0:	aaffffec 	bge	c005598 <pintarSeg+0xe8>
		salida2[x] = cadena[i];
	Lcd_DspAscII8x16(105, 0, BLACK, salida2); // TOTAL
 c0055e4:	e24b3038 	sub	r3, fp, #56	; 0x38
 c0055e8:	e3a00069 	mov	r0, #105	; 0x69
 c0055ec:	e3a01000 	mov	r1, #0
 c0055f0:	e3a0200f 	mov	r2, #15
 c0055f4:	ebfff6f5 	bl	c0031d0 <Lcd_DspAscII8x16>
	Lcd_Dma_Trans();
 c0055f8:	ebfff806 	bl	c003618 <Lcd_Dma_Trans>
}
 c0055fc:	e24bd00c 	sub	sp, fp, #12
 c005600:	e89d6800 	ldm	sp, {fp, sp, lr}
 c005604:	e12fff1e 	bx	lr
 c005608:	10624dd3 	.word	0x10624dd3
 c00560c:	0c007a18 	.word	0x0c007a18
 c005610:	0c007a1c 	.word	0x0c007a1c

0c005614 <sudoku9x9>:

////////////////////////////////////////////////////////////////////////////////
// proceso principal del juego que recibe el tablero,
// y la seal de ready que indica que se han actualizado fila y columna
void sudoku9x9(CELDA cuadricula[NUM_FILAS][NUM_COLUMNAS]) {
 c005614:	e1a0c00d 	mov	ip, sp
 c005618:	e92dd800 	push	{fp, ip, lr, pc}
 c00561c:	e24cb004 	sub	fp, ip, #4
 c005620:	e24dd060 	sub	sp, sp, #96	; 0x60
 c005624:	e50b0060 	str	r0, [fp, #-96]	; 0xffffffa0
	pintarSeg();
 c005628:	ebffffa0 	bl	c0054b0 <pintarSeg>
	unsigned int fin = 0;
 c00562c:	e3a03000 	mov	r3, #0
 c005630:	e50b3010 	str	r3, [fp, #-16]
	int celdas_vacias;
	unsigned int tiempoCalculos = 0;
 c005634:	e3a03000 	mov	r3, #0
 c005638:	e50b3014 	str	r3, [fp, #-20]	; 0xffffffec
	unsigned int tiempo1;
	char salida[32] = { 0 };
 c00563c:	e24b3058 	sub	r3, fp, #88	; 0x58
 c005640:	e3a02000 	mov	r2, #0
 c005644:	e5832000 	str	r2, [r3]
 c005648:	e2833004 	add	r3, r3, #4
 c00564c:	e3a02000 	mov	r2, #0
 c005650:	e5832000 	str	r2, [r3]
 c005654:	e2833004 	add	r3, r3, #4
 c005658:	e3a02000 	mov	r2, #0
 c00565c:	e5832000 	str	r2, [r3]
 c005660:	e2833004 	add	r3, r3, #4
 c005664:	e3a02000 	mov	r2, #0
 c005668:	e5832000 	str	r2, [r3]
 c00566c:	e2833004 	add	r3, r3, #4
 c005670:	e3a02000 	mov	r2, #0
 c005674:	e5832000 	str	r2, [r3]
 c005678:	e2833004 	add	r3, r3, #4
 c00567c:	e3a02000 	mov	r2, #0
 c005680:	e5832000 	str	r2, [r3]
 c005684:	e2833004 	add	r3, r3, #4
 c005688:	e3a02000 	mov	r2, #0
 c00568c:	e5832000 	str	r2, [r3]
 c005690:	e2833004 	add	r3, r3, #4
 c005694:	e3a02000 	mov	r2, #0
 c005698:	e5832000 	str	r2, [r3]
 c00569c:	e2833004 	add	r3, r3, #4
	int largo, i, x;
	rellenar_cuadricula(cuadricula);
 c0056a0:	e51b0060 	ldr	r0, [fp, #-96]	; 0xffffffa0
 c0056a4:	ebfffc57 	bl	c004808 <rellenar_cuadricula>
	estado_juego = actualizar;
 c0056a8:	e59f37cc 	ldr	r3, [pc, #1996]	; c005e7c <sudoku9x9+0x868>
 c0056ac:	e3a02000 	mov	r2, #0
 c0056b0:	e5c32000 	strb	r2, [r3]
	int digito = -1;
 c0056b4:	e3e03000 	mvn	r3, #0
 c0056b8:	e50b3020 	str	r3, [fp, #-32]	; 0xffffffe0
	unsigned int botonIzqPulsado = 0;
 c0056bc:	e3a03000 	mov	r3, #0
 c0056c0:	e50b3024 	str	r3, [fp, #-36]	; 0xffffffdc
	unsigned int b = 0;
 c0056c4:	e3a03000 	mov	r3, #0
 c0056c8:	e50b3028 	str	r3, [fp, #-40]	; 0xffffffd8
	//F por el 8Led
	D8Led_symbol(15);
 c0056cc:	e3a0000f 	mov	r0, #15
 c0056d0:	ebffed9d 	bl	c000d4c <D8Led_symbol>
	while (fin == 0) {
 c0056d4:	ea0001e2 	b	c005e64 <sudoku9x9+0x850>
		pintarSeg();
 c0056d8:	ebffff74 	bl	c0054b0 <pintarSeg>
		switch (estado_juego) {
 c0056dc:	e59f3798 	ldr	r3, [pc, #1944]	; c005e7c <sudoku9x9+0x868>
 c0056e0:	e5d33000 	ldrb	r3, [r3]
 c0056e4:	e3530008 	cmp	r3, #8
 c0056e8:	979ff103 	ldrls	pc, [pc, r3, lsl #2]
 c0056ec:	ea0001dc 	b	c005e64 <sudoku9x9+0x850>
 c0056f0:	0c005714 	.word	0x0c005714
 c0056f4:	0c00589c 	.word	0x0c00589c
 c0056f8:	0c0059c0 	.word	0x0c0059c0
 c0056fc:	0c005a68 	.word	0x0c005a68
 c005700:	0c005b84 	.word	0x0c005b84
 c005704:	0c005bb0 	.word	0x0c005bb0
 c005708:	0c005cc4 	.word	0x0c005cc4
 c00570c:	0c005cf0 	.word	0x0c005cf0
 c005710:	0c005d3c 	.word	0x0c005d3c
		case actualizar: {
			// TIEMPO CALCULOS
			unsigned int tiempo = timer2_Leer();
 c005714:	eb000299 	bl	c006180 <timer2_Leer>
 c005718:	e50b002c 	str	r0, [fp, #-44]	; 0xffffffd4
			celdas_vacias = sudoku_recalcular_c(cuadricula);
 c00571c:	e51b0060 	ldr	r0, [fp, #-96]	; 0xffffffa0
 c005720:	ebfffbfc 	bl	c004718 <sudoku_recalcular_c>
 c005724:	e50b0030 	str	r0, [fp, #-48]	; 0xffffffd0
			tiempo1 = timer2_Leer();
 c005728:	eb000294 	bl	c006180 <timer2_Leer>
 c00572c:	e50b0034 	str	r0, [fp, #-52]	; 0xffffffcc
			tiempoCalculos += tiempo1 - tiempo;
 c005730:	e51b2034 	ldr	r2, [fp, #-52]	; 0xffffffcc
 c005734:	e51b302c 	ldr	r3, [fp, #-44]	; 0xffffffd4
 c005738:	e0633002 	rsb	r3, r3, r2
 c00573c:	e51b2014 	ldr	r2, [fp, #-20]	; 0xffffffec
 c005740:	e0823003 	add	r3, r2, r3
 c005744:	e50b3014 	str	r3, [fp, #-20]	; 0xffffffec
			itoa(tiempoCalculos, cadena2);
 c005748:	e51b3014 	ldr	r3, [fp, #-20]	; 0xffffffec
 c00574c:	e1a00003 	mov	r0, r3
 c005750:	e59f1728 	ldr	r1, [pc, #1832]	; c005e80 <sudoku9x9+0x86c>
 c005754:	ebffff19 	bl	c0053c0 <itoa>
			actualizarTablero(cuadricula);
 c005758:	e51b0060 	ldr	r0, [fp, #-96]	; 0xffffffa0
 c00575c:	ebfffc55 	bl	c0048b8 <actualizarTablero>
			LcdClrRect(276, 0, 318, 12, 0); // limpiamos calculos lcd
 c005760:	e3a03000 	mov	r3, #0
 c005764:	e58d3000 	str	r3, [sp]
 c005768:	e3a00f45 	mov	r0, #276	; 0x114
 c00576c:	e3a01000 	mov	r1, #0
 c005770:	e59f270c 	ldr	r2, [pc, #1804]	; c005e84 <sudoku9x9+0x870>
 c005774:	e3a0300c 	mov	r3, #12
 c005778:	ebfff14c 	bl	c001cb0 <LcdClrRect>

			//push_debug(1, tiempoCalculos);

			// invertimos la cadena
			largo = strlen(cadena2) - 1;
 c00577c:	e59f06fc 	ldr	r0, [pc, #1788]	; c005e80 <sudoku9x9+0x86c>
 c005780:	eb000342 	bl	c006490 <strlen>
 c005784:	e1a03000 	mov	r3, r0
 c005788:	e2433001 	sub	r3, r3, #1
 c00578c:	e50b3038 	str	r3, [fp, #-56]	; 0xffffffc8
			for (i = largo, x = 0; i >= 0; i--, x++)
 c005790:	e51b3038 	ldr	r3, [fp, #-56]	; 0xffffffc8
 c005794:	e50b3018 	str	r3, [fp, #-24]	; 0xffffffe8
 c005798:	e3a03000 	mov	r3, #0
 c00579c:	e50b301c 	str	r3, [fp, #-28]	; 0xffffffe4
 c0057a0:	ea00000f 	b	c0057e4 <sudoku9x9+0x1d0>
				salida[x] = cadena2[i];
 c0057a4:	e59f26d4 	ldr	r2, [pc, #1748]	; c005e80 <sudoku9x9+0x86c>
 c0057a8:	e51b3018 	ldr	r3, [fp, #-24]	; 0xffffffe8
 c0057ac:	e0823003 	add	r3, r2, r3
 c0057b0:	e5d32000 	ldrb	r2, [r3]
 c0057b4:	e3e0304b 	mvn	r3, #75	; 0x4b
 c0057b8:	e51b101c 	ldr	r1, [fp, #-28]	; 0xffffffe4
 c0057bc:	e24b000c 	sub	r0, fp, #12
 c0057c0:	e0801001 	add	r1, r0, r1
 c0057c4:	e0813003 	add	r3, r1, r3
 c0057c8:	e5c32000 	strb	r2, [r3]

			//push_debug(1, tiempoCalculos);

			// invertimos la cadena
			largo = strlen(cadena2) - 1;
			for (i = largo, x = 0; i >= 0; i--, x++)
 c0057cc:	e51b3018 	ldr	r3, [fp, #-24]	; 0xffffffe8
 c0057d0:	e2433001 	sub	r3, r3, #1
 c0057d4:	e50b3018 	str	r3, [fp, #-24]	; 0xffffffe8
 c0057d8:	e51b301c 	ldr	r3, [fp, #-28]	; 0xffffffe4
 c0057dc:	e2833001 	add	r3, r3, #1
 c0057e0:	e50b301c 	str	r3, [fp, #-28]	; 0xffffffe4
 c0057e4:	e51b3018 	ldr	r3, [fp, #-24]	; 0xffffffe8
 c0057e8:	e3530000 	cmp	r3, #0
 c0057ec:	aaffffec 	bge	c0057a4 <sudoku9x9+0x190>
				salida[x] = cadena2[i];
			Lcd_DspAscII8x16(278, 0, BLACK, salida); // CALCULOS
 c0057f0:	e24b3058 	sub	r3, fp, #88	; 0x58
 c0057f4:	e59f068c 	ldr	r0, [pc, #1676]	; c005e88 <sudoku9x9+0x874>
 c0057f8:	e3a01000 	mov	r1, #0
 c0057fc:	e3a0200f 	mov	r2, #15
 c005800:	ebfff672 	bl	c0031d0 <Lcd_DspAscII8x16>
			Lcd_Dma_Trans();
 c005804:	ebfff783 	bl	c003618 <Lcd_Dma_Trans>
			leds_off();
 c005808:	ebfff976 	bl	c003de8 <leds_off>
			// Comprobamos si hemos finalizado
			if (celdas_vacias == 0) {
 c00580c:	e51b3030 	ldr	r3, [fp, #-48]	; 0xffffffd0
 c005810:	e3530000 	cmp	r3, #0
 c005814:	1a00001a 	bne	c005884 <sudoku9x9+0x270>
				// Mostramos el resultado -> Partida completada por el usuario
				LcdClrRect(5, 80, 312, 175, 14); // Cuadro para el resultado
 c005818:	e3a0300e 	mov	r3, #14
 c00581c:	e58d3000 	str	r3, [sp]
 c005820:	e3a00005 	mov	r0, #5
 c005824:	e3a01050 	mov	r1, #80	; 0x50
 c005828:	e3a02f4e 	mov	r2, #312	; 0x138
 c00582c:	e3a030af 	mov	r3, #175	; 0xaf
 c005830:	ebfff11e 	bl	c001cb0 <LcdClrRect>
				LcdClrRect(15, 90, 302, 165, 0); // Cuadro para el resultado
 c005834:	e3a03000 	mov	r3, #0
 c005838:	e58d3000 	str	r3, [sp]
 c00583c:	e3a0000f 	mov	r0, #15
 c005840:	e3a0105a 	mov	r1, #90	; 0x5a
 c005844:	e59f2640 	ldr	r2, [pc, #1600]	; c005e8c <sudoku9x9+0x878>
 c005848:	e3a030a5 	mov	r3, #165	; 0xa5
 c00584c:	ebfff117 	bl	c001cb0 <LcdClrRect>
				Lcd_DspAscII8x16(100, 110, BLACK, victoria_str);
 c005850:	e3a00064 	mov	r0, #100	; 0x64
 c005854:	e3a0106e 	mov	r1, #110	; 0x6e
 c005858:	e3a0200f 	mov	r2, #15
 c00585c:	e59f362c 	ldr	r3, [pc, #1580]	; c005e90 <sudoku9x9+0x87c>
 c005860:	ebfff65a 	bl	c0031d0 <Lcd_DspAscII8x16>
				Lcd_DspAscII8x16(50, 120, BLACK, pulse_str);
 c005864:	e3a00032 	mov	r0, #50	; 0x32
 c005868:	e3a01078 	mov	r1, #120	; 0x78
 c00586c:	e3a0200f 	mov	r2, #15
 c005870:	e59f361c 	ldr	r3, [pc, #1564]	; c005e94 <sudoku9x9+0x880>
 c005874:	ebfff655 	bl	c0031d0 <Lcd_DspAscII8x16>
				Lcd_Dma_Trans();
 c005878:	ebfff766 	bl	c003618 <Lcd_Dma_Trans>
				fin = 1;
 c00587c:	e3a03001 	mov	r3, #1
 c005880:	e50b3010 	str	r3, [fp, #-16]
			}
			//F por el 8Led
			D8Led_symbol(15);
 c005884:	e3a0000f 	mov	r0, #15
 c005888:	ebffed2f 	bl	c000d4c <D8Led_symbol>
			estado_juego = pedir_filas;
 c00588c:	e59f35e8 	ldr	r3, [pc, #1512]	; c005e7c <sudoku9x9+0x868>
 c005890:	e3a02001 	mov	r2, #1
 c005894:	e5c32000 	strb	r2, [r3]
			break;
 c005898:	ea000171 	b	c005e64 <sudoku9x9+0x850>
		}
		case pedir_filas: {
			b = botonPulsado();
 c00589c:	ebfff01b 	bl	c001910 <botonPulsado>
 c0058a0:	e50b0028 	str	r0, [fp, #-40]	; 0xffffffd8
			if (b == 1) {
 c0058a4:	e51b3028 	ldr	r3, [fp, #-40]	; 0xffffffd8
 c0058a8:	e3530001 	cmp	r3, #1
 c0058ac:	1a000039 	bne	c005998 <sudoku9x9+0x384>
				//D8Led_symbol(digito+1);
				botonIzqPulsado = 1;
 c0058b0:	e3a03001 	mov	r3, #1
 c0058b4:	e50b3024 	str	r3, [fp, #-36]	; 0xffffffdc
				if ((rPDATG & 0xC0) != 0xC0) {
 c0058b8:	e59f35d8 	ldr	r3, [pc, #1496]	; c005e98 <sudoku9x9+0x884>
 c0058bc:	e5933000 	ldr	r3, [r3]
 c0058c0:	e20330c0 	and	r3, r3, #192	; 0xc0
 c0058c4:	e35300c0 	cmp	r3, #192	; 0xc0
 c0058c8:	0a000152 	beq	c005e18 <sudoku9x9+0x804>
					/* PULSACION CORTA*/
					// boton soltado
					digito++;
 c0058cc:	e51b3020 	ldr	r3, [fp, #-32]	; 0xffffffe0
 c0058d0:	e2833001 	add	r3, r3, #1
 c0058d4:	e50b3020 	str	r3, [fp, #-32]	; 0xffffffe0
					digito = digito % 10;
 c0058d8:	e51b2020 	ldr	r2, [fp, #-32]	; 0xffffffe0
 c0058dc:	e59f35b8 	ldr	r3, [pc, #1464]	; c005e9c <sudoku9x9+0x888>
 c0058e0:	e0c31392 	smull	r1, r3, r2, r3
 c0058e4:	e1a01143 	asr	r1, r3, #2
 c0058e8:	e1a03fc2 	asr	r3, r2, #31
 c0058ec:	e0631001 	rsb	r1, r3, r1
 c0058f0:	e1a03001 	mov	r3, r1
 c0058f4:	e1a03103 	lsl	r3, r3, #2
 c0058f8:	e0833001 	add	r3, r3, r1
 c0058fc:	e1a03083 	lsl	r3, r3, #1
 c005900:	e0633002 	rsb	r3, r3, r2
 c005904:	e50b3020 	str	r3, [fp, #-32]	; 0xffffffe0
					D8Led_symbol(digito+1);
 c005908:	e51b3020 	ldr	r3, [fp, #-32]	; 0xffffffe0
 c00590c:	e2833001 	add	r3, r3, #1
 c005910:	e1a00003 	mov	r0, r3
 c005914:	ebffed0c 	bl	c000d4c <D8Led_symbol>
					// Pulsacion larga
					while (getMantenido() == 1) {
 c005918:	ea000018 	b	c005980 <sudoku9x9+0x36c>
						// indicamos al timer que inicie los 300 ms
						timer2_Esperar();
 c00591c:	eb00025c 	bl	c006294 <timer2_Esperar>
						if (getContador() == 0) {
 c005920:	eb000273 	bl	c0062f4 <getContador>
 c005924:	e1a03000 	mov	r3, r0
 c005928:	e3530000 	cmp	r3, #0
 c00592c:	1a000013 	bne	c005980 <sudoku9x9+0x36c>
							digito++;
 c005930:	e51b3020 	ldr	r3, [fp, #-32]	; 0xffffffe0
 c005934:	e2833001 	add	r3, r3, #1
 c005938:	e50b3020 	str	r3, [fp, #-32]	; 0xffffffe0
							digito = (digito % 10);
 c00593c:	e51b2020 	ldr	r2, [fp, #-32]	; 0xffffffe0
 c005940:	e59f3554 	ldr	r3, [pc, #1364]	; c005e9c <sudoku9x9+0x888>
 c005944:	e0c30392 	smull	r0, r3, r2, r3
 c005948:	e1a01143 	asr	r1, r3, #2
 c00594c:	e1a03fc2 	asr	r3, r2, #31
 c005950:	e0631001 	rsb	r1, r3, r1
 c005954:	e1a03001 	mov	r3, r1
 c005958:	e1a03103 	lsl	r3, r3, #2
 c00595c:	e0833001 	add	r3, r3, r1
 c005960:	e1a03083 	lsl	r3, r3, #1
 c005964:	e0633002 	rsb	r3, r3, r2
 c005968:	e50b3020 	str	r3, [fp, #-32]	; 0xffffffe0
							D8Led_symbol(digito+1);
 c00596c:	e51b3020 	ldr	r3, [fp, #-32]	; 0xffffffe0
 c005970:	e2833001 	add	r3, r3, #1
 c005974:	e1a00003 	mov	r0, r3
 c005978:	ebffecf3 	bl	c000d4c <D8Led_symbol>
							//deshabilitamos la interrupcion al timer y reseteamos contador
							timer2_ResetEsperar();
 c00597c:	eb00024e 	bl	c0062bc <timer2_ResetEsperar>
					// boton soltado
					digito++;
					digito = digito % 10;
					D8Led_symbol(digito+1);
					// Pulsacion larga
					while (getMantenido() == 1) {
 c005980:	ebffeff2 	bl	c001950 <getMantenido>
 c005984:	e1a03000 	mov	r3, r0
 c005988:	e3530001 	cmp	r3, #1
 c00598c:	0affffe2 	beq	c00591c <sudoku9x9+0x308>
							//deshabilitamos la interrupcion al timer y reseteamos contador
							timer2_ResetEsperar();
						}
					}
					//deshabilitamos la interrupcion al timer y reseteamos contador
					timer2_ResetEsperar();
 c005990:	eb000249 	bl	c0062bc <timer2_ResetEsperar>
				if (botonIzqPulsado == 1) {
					botonIzqPulsado == 0;
					estado_juego = confirmar_filas;
				}
			}
			break;
 c005994:	ea000132 	b	c005e64 <sudoku9x9+0x850>
						}
					}
					//deshabilitamos la interrupcion al timer y reseteamos contador
					timer2_ResetEsperar();
				}
			} else if (b == 2) {
 c005998:	e51b3028 	ldr	r3, [fp, #-40]	; 0xffffffd8
 c00599c:	e3530002 	cmp	r3, #2
 c0059a0:	1a00011e 	bne	c005e20 <sudoku9x9+0x80c>
				if (botonIzqPulsado == 1) {
 c0059a4:	e51b3024 	ldr	r3, [fp, #-36]	; 0xffffffdc
 c0059a8:	e3530001 	cmp	r3, #1
 c0059ac:	1a00011d 	bne	c005e28 <sudoku9x9+0x814>
					botonIzqPulsado == 0;
					estado_juego = confirmar_filas;
 c0059b0:	e59f34c4 	ldr	r3, [pc, #1220]	; c005e7c <sudoku9x9+0x868>
 c0059b4:	e3a02002 	mov	r2, #2
 c0059b8:	e5c32000 	strb	r2, [r3]
				}
			}
			break;
 c0059bc:	ea000128 	b	c005e64 <sudoku9x9+0x850>
		}
		case confirmar_filas: {
			filas = digito;
 c0059c0:	e51b2020 	ldr	r2, [fp, #-32]	; 0xffffffe0
 c0059c4:	e59f34d4 	ldr	r3, [pc, #1236]	; c005ea0 <sudoku9x9+0x88c>
 c0059c8:	e5832000 	str	r2, [r3]
			// Comprobamos si fila A
			if (filas == 9) {
 c0059cc:	e59f34cc 	ldr	r3, [pc, #1228]	; c005ea0 <sudoku9x9+0x88c>
 c0059d0:	e5933000 	ldr	r3, [r3]
 c0059d4:	e3530009 	cmp	r3, #9
 c0059d8:	1a00001a 	bne	c005a48 <sudoku9x9+0x434>
				// Leds encendidos
				leds_on();
 c0059dc:	ebfff8f9 	bl	c003dc8 <leds_on>
				//informamos de las opciones
				LcdClrRect(5, 80, 312, 175, 14); // Cuadro para el resultado
 c0059e0:	e3a0300e 	mov	r3, #14
 c0059e4:	e58d3000 	str	r3, [sp]
 c0059e8:	e3a00005 	mov	r0, #5
 c0059ec:	e3a01050 	mov	r1, #80	; 0x50
 c0059f0:	e3a02f4e 	mov	r2, #312	; 0x138
 c0059f4:	e3a030af 	mov	r3, #175	; 0xaf
 c0059f8:	ebfff0ac 	bl	c001cb0 <LcdClrRect>
				LcdClrRect(15, 90, 302, 165, 0); // Cuadro para el resultado
 c0059fc:	e3a03000 	mov	r3, #0
 c005a00:	e58d3000 	str	r3, [sp]
 c005a04:	e3a0000f 	mov	r0, #15
 c005a08:	e3a0105a 	mov	r1, #90	; 0x5a
 c005a0c:	e59f2478 	ldr	r2, [pc, #1144]	; c005e8c <sudoku9x9+0x878>
 c005a10:	e3a030a5 	mov	r3, #165	; 0xa5
 c005a14:	ebfff0a5 	bl	c001cb0 <LcdClrRect>
				Lcd_DspAscII8x16(50, 120, BLACK, "IZQ -> NO        DCHO -> SI");
 c005a18:	e3a00032 	mov	r0, #50	; 0x32
 c005a1c:	e3a01078 	mov	r1, #120	; 0x78
 c005a20:	e3a0200f 	mov	r2, #15
 c005a24:	e59f3478 	ldr	r3, [pc, #1144]	; c005ea4 <sudoku9x9+0x890>
 c005a28:	ebfff5e8 	bl	c0031d0 <Lcd_DspAscII8x16>
				Lcd_Dma_Trans();
 c005a2c:	ebfff6f9 	bl	c003618 <Lcd_Dma_Trans>
				// A por el 8Led
				D8Led_symbol(10);
 c005a30:	e3a0000a 	mov	r0, #10
 c005a34:	ebffecc4 	bl	c000d4c <D8Led_symbol>
				estado_juego = confirmacion;
 c005a38:	e59f343c 	ldr	r3, [pc, #1084]	; c005e7c <sudoku9x9+0x868>
 c005a3c:	e3a02008 	mov	r2, #8
 c005a40:	e5c32000 	strb	r2, [r3]
				//C por el 8Led
				D8Led_symbol(12);
				digito = -1;
				estado_juego = pedir_columnas;
			}
			break;
 c005a44:	ea000106 	b	c005e64 <sudoku9x9+0x850>
				// A por el 8Led
				D8Led_symbol(10);
				estado_juego = confirmacion;
			} else {
				//C por el 8Led
				D8Led_symbol(12);
 c005a48:	e3a0000c 	mov	r0, #12
 c005a4c:	ebffecbe 	bl	c000d4c <D8Led_symbol>
				digito = -1;
 c005a50:	e3e03000 	mvn	r3, #0
 c005a54:	e50b3020 	str	r3, [fp, #-32]	; 0xffffffe0
				estado_juego = pedir_columnas;
 c005a58:	e59f341c 	ldr	r3, [pc, #1052]	; c005e7c <sudoku9x9+0x868>
 c005a5c:	e3a02003 	mov	r2, #3
 c005a60:	e5c32000 	strb	r2, [r3]
			}
			break;
 c005a64:	ea0000fe 	b	c005e64 <sudoku9x9+0x850>
		}
		case pedir_columnas: {
			b = botonPulsado();
 c005a68:	ebffefa8 	bl	c001910 <botonPulsado>
 c005a6c:	e50b0028 	str	r0, [fp, #-40]	; 0xffffffd8
			if (b == 1) {
 c005a70:	e51b3028 	ldr	r3, [fp, #-40]	; 0xffffffd8
 c005a74:	e3530001 	cmp	r3, #1
 c005a78:	1a000037 	bne	c005b5c <sudoku9x9+0x548>
				botonIzqPulsado = 1;
 c005a7c:	e3a03001 	mov	r3, #1
 c005a80:	e50b3024 	str	r3, [fp, #-36]	; 0xffffffdc
				if ((rPDATG & 0xC0) != 0xC0) {
 c005a84:	e59f340c 	ldr	r3, [pc, #1036]	; c005e98 <sudoku9x9+0x884>
 c005a88:	e5933000 	ldr	r3, [r3]
 c005a8c:	e20330c0 	and	r3, r3, #192	; 0xc0
 c005a90:	e35300c0 	cmp	r3, #192	; 0xc0
 c005a94:	0a0000e5 	beq	c005e30 <sudoku9x9+0x81c>
					/* PULSACION CORTA*/
					// boton soltado
					digito++;
 c005a98:	e51b3020 	ldr	r3, [fp, #-32]	; 0xffffffe0
 c005a9c:	e2833001 	add	r3, r3, #1
 c005aa0:	e50b3020 	str	r3, [fp, #-32]	; 0xffffffe0
					digito = digito % 9;
 c005aa4:	e51b2020 	ldr	r2, [fp, #-32]	; 0xffffffe0
 c005aa8:	e59f33f8 	ldr	r3, [pc, #1016]	; c005ea8 <sudoku9x9+0x894>
 c005aac:	e0c31392 	smull	r1, r3, r2, r3
 c005ab0:	e1a010c3 	asr	r1, r3, #1
 c005ab4:	e1a03fc2 	asr	r3, r2, #31
 c005ab8:	e0631001 	rsb	r1, r3, r1
 c005abc:	e1a03001 	mov	r3, r1
 c005ac0:	e1a03183 	lsl	r3, r3, #3
 c005ac4:	e0833001 	add	r3, r3, r1
 c005ac8:	e0633002 	rsb	r3, r3, r2
 c005acc:	e50b3020 	str	r3, [fp, #-32]	; 0xffffffe0
					D8Led_symbol(digito+1);
 c005ad0:	e51b3020 	ldr	r3, [fp, #-32]	; 0xffffffe0
 c005ad4:	e2833001 	add	r3, r3, #1
 c005ad8:	e1a00003 	mov	r0, r3
 c005adc:	ebffec9a 	bl	c000d4c <D8Led_symbol>
					// Pulsacion larga
					while (getMantenido() == 1) {
 c005ae0:	ea000017 	b	c005b44 <sudoku9x9+0x530>
						// indicamos al timer que inicie los 300 ms
						timer2_Esperar();
 c005ae4:	eb0001ea 	bl	c006294 <timer2_Esperar>
						if (getContador() == 0) {
 c005ae8:	eb000201 	bl	c0062f4 <getContador>
 c005aec:	e1a03000 	mov	r3, r0
 c005af0:	e3530000 	cmp	r3, #0
 c005af4:	1a000012 	bne	c005b44 <sudoku9x9+0x530>
							digito++;
 c005af8:	e51b3020 	ldr	r3, [fp, #-32]	; 0xffffffe0
 c005afc:	e2833001 	add	r3, r3, #1
 c005b00:	e50b3020 	str	r3, [fp, #-32]	; 0xffffffe0
							digito = (digito % 9);
 c005b04:	e51b2020 	ldr	r2, [fp, #-32]	; 0xffffffe0
 c005b08:	e59f3398 	ldr	r3, [pc, #920]	; c005ea8 <sudoku9x9+0x894>
 c005b0c:	e0c30392 	smull	r0, r3, r2, r3
 c005b10:	e1a010c3 	asr	r1, r3, #1
 c005b14:	e1a03fc2 	asr	r3, r2, #31
 c005b18:	e0631001 	rsb	r1, r3, r1
 c005b1c:	e1a03001 	mov	r3, r1
 c005b20:	e1a03183 	lsl	r3, r3, #3
 c005b24:	e0833001 	add	r3, r3, r1
 c005b28:	e0633002 	rsb	r3, r3, r2
 c005b2c:	e50b3020 	str	r3, [fp, #-32]	; 0xffffffe0
							D8Led_symbol(digito+1);
 c005b30:	e51b3020 	ldr	r3, [fp, #-32]	; 0xffffffe0
 c005b34:	e2833001 	add	r3, r3, #1
 c005b38:	e1a00003 	mov	r0, r3
 c005b3c:	ebffec82 	bl	c000d4c <D8Led_symbol>
							//deshabilitamos la interrupcion al timer y reseteamos contador
							timer2_ResetEsperar();
 c005b40:	eb0001dd 	bl	c0062bc <timer2_ResetEsperar>
					// boton soltado
					digito++;
					digito = digito % 9;
					D8Led_symbol(digito+1);
					// Pulsacion larga
					while (getMantenido() == 1) {
 c005b44:	ebffef81 	bl	c001950 <getMantenido>
 c005b48:	e1a03000 	mov	r3, r0
 c005b4c:	e3530001 	cmp	r3, #1
 c005b50:	0affffe3 	beq	c005ae4 <sudoku9x9+0x4d0>
							//deshabilitamos la interrupcion al timer y reseteamos contador
							timer2_ResetEsperar();
						}
					}
					//deshabilitamos la interrupcion al timer y reseteamos contador
					timer2_ResetEsperar();
 c005b54:	eb0001d8 	bl	c0062bc <timer2_ResetEsperar>
				if (botonIzqPulsado == 1) {
					botonIzqPulsado == 0;
					estado_juego = confirmar_columnas;
				}
			}
			break;
 c005b58:	ea0000c1 	b	c005e64 <sudoku9x9+0x850>
						}
					}
					//deshabilitamos la interrupcion al timer y reseteamos contador
					timer2_ResetEsperar();
				}
			} else if (b == 2) {
 c005b5c:	e51b3028 	ldr	r3, [fp, #-40]	; 0xffffffd8
 c005b60:	e3530002 	cmp	r3, #2
 c005b64:	1a0000b3 	bne	c005e38 <sudoku9x9+0x824>
				if (botonIzqPulsado == 1) {
 c005b68:	e51b3024 	ldr	r3, [fp, #-36]	; 0xffffffdc
 c005b6c:	e3530001 	cmp	r3, #1
 c005b70:	1a0000b2 	bne	c005e40 <sudoku9x9+0x82c>
					botonIzqPulsado == 0;
					estado_juego = confirmar_columnas;
 c005b74:	e59f3300 	ldr	r3, [pc, #768]	; c005e7c <sudoku9x9+0x868>
 c005b78:	e3a02004 	mov	r2, #4
 c005b7c:	e5c32000 	strb	r2, [r3]
				}
			}
			break;
 c005b80:	ea0000b7 	b	c005e64 <sudoku9x9+0x850>
		}
		case confirmar_columnas: {
			columnas = digito;
 c005b84:	e51b2020 	ldr	r2, [fp, #-32]	; 0xffffffe0
 c005b88:	e59f331c 	ldr	r3, [pc, #796]	; c005eac <sudoku9x9+0x898>
 c005b8c:	e5832000 	str	r2, [r3]
			//b por el 8Led
			D8Led_symbol(11);
 c005b90:	e3a0000b 	mov	r0, #11
 c005b94:	ebffec6c 	bl	c000d4c <D8Led_symbol>
			digito = 0;
 c005b98:	e3a03000 	mov	r3, #0
 c005b9c:	e50b3020 	str	r3, [fp, #-32]	; 0xffffffe0
			estado_juego = pedir_valor;
 c005ba0:	e59f32d4 	ldr	r3, [pc, #724]	; c005e7c <sudoku9x9+0x868>
 c005ba4:	e3a02005 	mov	r2, #5
 c005ba8:	e5c32000 	strb	r2, [r3]
			break;
 c005bac:	ea0000ac 	b	c005e64 <sudoku9x9+0x850>
		}
		case pedir_valor: {
			b = botonPulsado();
 c005bb0:	ebffef56 	bl	c001910 <botonPulsado>
 c005bb4:	e50b0028 	str	r0, [fp, #-40]	; 0xffffffd8
			if (b == 1) {
 c005bb8:	e51b3028 	ldr	r3, [fp, #-40]	; 0xffffffd8
 c005bbc:	e3530001 	cmp	r3, #1
 c005bc0:	1a000035 	bne	c005c9c <sudoku9x9+0x688>
				botonIzqPulsado = 1;
 c005bc4:	e3a03001 	mov	r3, #1
 c005bc8:	e50b3024 	str	r3, [fp, #-36]	; 0xffffffdc
				if ((rPDATG & 0xC0) != 0xC0) {
 c005bcc:	e59f32c4 	ldr	r3, [pc, #708]	; c005e98 <sudoku9x9+0x884>
 c005bd0:	e5933000 	ldr	r3, [r3]
 c005bd4:	e20330c0 	and	r3, r3, #192	; 0xc0
 c005bd8:	e35300c0 	cmp	r3, #192	; 0xc0
 c005bdc:	0a000099 	beq	c005e48 <sudoku9x9+0x834>
					/* PULSACION CORTA*/
					// boton soltado
					digito++;
 c005be0:	e51b3020 	ldr	r3, [fp, #-32]	; 0xffffffe0
 c005be4:	e2833001 	add	r3, r3, #1
 c005be8:	e50b3020 	str	r3, [fp, #-32]	; 0xffffffe0
					digito = digito % 10;
 c005bec:	e51b2020 	ldr	r2, [fp, #-32]	; 0xffffffe0
 c005bf0:	e59f32a4 	ldr	r3, [pc, #676]	; c005e9c <sudoku9x9+0x888>
 c005bf4:	e0c31392 	smull	r1, r3, r2, r3
 c005bf8:	e1a01143 	asr	r1, r3, #2
 c005bfc:	e1a03fc2 	asr	r3, r2, #31
 c005c00:	e0631001 	rsb	r1, r3, r1
 c005c04:	e1a03001 	mov	r3, r1
 c005c08:	e1a03103 	lsl	r3, r3, #2
 c005c0c:	e0833001 	add	r3, r3, r1
 c005c10:	e1a03083 	lsl	r3, r3, #1
 c005c14:	e0633002 	rsb	r3, r3, r2
 c005c18:	e50b3020 	str	r3, [fp, #-32]	; 0xffffffe0
					D8Led_symbol(digito);
 c005c1c:	e51b0020 	ldr	r0, [fp, #-32]	; 0xffffffe0
 c005c20:	ebffec49 	bl	c000d4c <D8Led_symbol>
					// Pulsacion larga
					while (getMantenido() == 1) {
 c005c24:	ea000016 	b	c005c84 <sudoku9x9+0x670>
						// indicamos al timer que inicie los 300 ms
						timer2_Esperar();
 c005c28:	eb000199 	bl	c006294 <timer2_Esperar>
						if (getContador() == 0) {
 c005c2c:	eb0001b0 	bl	c0062f4 <getContador>
 c005c30:	e1a03000 	mov	r3, r0
 c005c34:	e3530000 	cmp	r3, #0
 c005c38:	1a000011 	bne	c005c84 <sudoku9x9+0x670>
							digito++;
 c005c3c:	e51b3020 	ldr	r3, [fp, #-32]	; 0xffffffe0
 c005c40:	e2833001 	add	r3, r3, #1
 c005c44:	e50b3020 	str	r3, [fp, #-32]	; 0xffffffe0
							digito = (digito % 10);
 c005c48:	e51b2020 	ldr	r2, [fp, #-32]	; 0xffffffe0
 c005c4c:	e59f3248 	ldr	r3, [pc, #584]	; c005e9c <sudoku9x9+0x888>
 c005c50:	e0c30392 	smull	r0, r3, r2, r3
 c005c54:	e1a01143 	asr	r1, r3, #2
 c005c58:	e1a03fc2 	asr	r3, r2, #31
 c005c5c:	e0631001 	rsb	r1, r3, r1
 c005c60:	e1a03001 	mov	r3, r1
 c005c64:	e1a03103 	lsl	r3, r3, #2
 c005c68:	e0833001 	add	r3, r3, r1
 c005c6c:	e1a03083 	lsl	r3, r3, #1
 c005c70:	e0633002 	rsb	r3, r3, r2
 c005c74:	e50b3020 	str	r3, [fp, #-32]	; 0xffffffe0
							D8Led_symbol(digito);
 c005c78:	e51b0020 	ldr	r0, [fp, #-32]	; 0xffffffe0
 c005c7c:	ebffec32 	bl	c000d4c <D8Led_symbol>
							//deshabilitamos la interrupcion al timer y reseteamos contador
							timer2_ResetEsperar();
 c005c80:	eb00018d 	bl	c0062bc <timer2_ResetEsperar>
					// boton soltado
					digito++;
					digito = digito % 10;
					D8Led_symbol(digito);
					// Pulsacion larga
					while (getMantenido() == 1) {
 c005c84:	ebffef31 	bl	c001950 <getMantenido>
 c005c88:	e1a03000 	mov	r3, r0
 c005c8c:	e3530001 	cmp	r3, #1
 c005c90:	0affffe4 	beq	c005c28 <sudoku9x9+0x614>
							//deshabilitamos la interrupcion al timer y reseteamos contador
							timer2_ResetEsperar();
						}
					}
					//deshabilitamos la interrupcion al timer y reseteamos contador
					timer2_ResetEsperar();
 c005c94:	eb000188 	bl	c0062bc <timer2_ResetEsperar>
				if (botonIzqPulsado == 1) {
					botonIzqPulsado == 0;
					estado_juego = confirmar_valor;
				}
			}
			break;
 c005c98:	ea000071 	b	c005e64 <sudoku9x9+0x850>
						}
					}
					//deshabilitamos la interrupcion al timer y reseteamos contador
					timer2_ResetEsperar();
				}
			} else if (b == 2) {
 c005c9c:	e51b3028 	ldr	r3, [fp, #-40]	; 0xffffffd8
 c005ca0:	e3530002 	cmp	r3, #2
 c005ca4:	1a000069 	bne	c005e50 <sudoku9x9+0x83c>
				if (botonIzqPulsado == 1) {
 c005ca8:	e51b3024 	ldr	r3, [fp, #-36]	; 0xffffffdc
 c005cac:	e3530001 	cmp	r3, #1
 c005cb0:	1a000068 	bne	c005e58 <sudoku9x9+0x844>
					botonIzqPulsado == 0;
					estado_juego = confirmar_valor;
 c005cb4:	e59f31c0 	ldr	r3, [pc, #448]	; c005e7c <sudoku9x9+0x868>
 c005cb8:	e3a02006 	mov	r2, #6
 c005cbc:	e5c32000 	strb	r2, [r3]
				}
			}
			break;
 c005cc0:	ea000067 	b	c005e64 <sudoku9x9+0x850>
		}
		case confirmar_valor: {
			valor = digito;
 c005cc4:	e51b2020 	ldr	r2, [fp, #-32]	; 0xffffffe0
 c005cc8:	e59f31e0 	ldr	r3, [pc, #480]	; c005eb0 <sudoku9x9+0x89c>
 c005ccc:	e5832000 	str	r2, [r3]
			//a por el 8Led
			D8Led_symbol(10);
 c005cd0:	e3a0000a 	mov	r0, #10
 c005cd4:	ebffec1c 	bl	c000d4c <D8Led_symbol>
			digito = -1;
 c005cd8:	e3e03000 	mvn	r3, #0
 c005cdc:	e50b3020 	str	r3, [fp, #-32]	; 0xffffffe0
			estado_juego = escribir_celda;
 c005ce0:	e59f3194 	ldr	r3, [pc, #404]	; c005e7c <sudoku9x9+0x868>
 c005ce4:	e3a02007 	mov	r2, #7
 c005ce8:	e5c32000 	strb	r2, [r3]
			break;
 c005cec:	ea00005c 	b	c005e64 <sudoku9x9+0x850>
		}
		case escribir_celda: {
			celda_poner_valor(&(cuadricula[filas][columnas]), valor);
 c005cf0:	e51b2060 	ldr	r2, [fp, #-96]	; 0xffffffa0
 c005cf4:	e59f31a4 	ldr	r3, [pc, #420]	; c005ea0 <sudoku9x9+0x88c>
 c005cf8:	e5933000 	ldr	r3, [r3]
 c005cfc:	e1a01203 	lsl	r1, r3, #4
 c005d00:	e59f31a4 	ldr	r3, [pc, #420]	; c005eac <sudoku9x9+0x898>
 c005d04:	e5933000 	ldr	r3, [r3]
 c005d08:	e0813003 	add	r3, r1, r3
 c005d0c:	e1a03083 	lsl	r3, r3, #1
 c005d10:	e0822003 	add	r2, r2, r3
 c005d14:	e59f3194 	ldr	r3, [pc, #404]	; c005eb0 <sudoku9x9+0x89c>
 c005d18:	e5933000 	ldr	r3, [r3]
 c005d1c:	e20330ff 	and	r3, r3, #255	; 0xff
 c005d20:	e1a00002 	mov	r0, r2
 c005d24:	e1a01003 	mov	r1, r3
 c005d28:	ebfff921 	bl	c0041b4 <celda_poner_valor>
			estado_juego = actualizar;
 c005d2c:	e59f3148 	ldr	r3, [pc, #328]	; c005e7c <sudoku9x9+0x868>
 c005d30:	e3a02000 	mov	r2, #0
 c005d34:	e5c32000 	strb	r2, [r3]
			break;
 c005d38:	ea000049 	b	c005e64 <sudoku9x9+0x850>
		}
		case confirmacion: {
			if (botonPulsado() == 1) {
 c005d3c:	ebffeef3 	bl	c001910 <botonPulsado>
 c005d40:	e1a03000 	mov	r3, r0
 c005d44:	e3530001 	cmp	r3, #1
 c005d48:	1a000011 	bne	c005d94 <sudoku9x9+0x780>
				// NO ACABAR
				// Apagamos los leds
				leds_off();
 c005d4c:	ebfff825 	bl	c003de8 <leds_off>
				//quitamos el cuadro
				LcdClrRect(5, 80, 312, 175, 0);
 c005d50:	e3a03000 	mov	r3, #0
 c005d54:	e58d3000 	str	r3, [sp]
 c005d58:	e3a00005 	mov	r0, #5
 c005d5c:	e3a01050 	mov	r1, #80	; 0x50
 c005d60:	e3a02f4e 	mov	r2, #312	; 0x138
 c005d64:	e3a030af 	mov	r3, #175	; 0xaf
 c005d68:	ebffefd0 	bl	c001cb0 <LcdClrRect>
				actualizarTablero(cuadricula);
 c005d6c:	e51b0060 	ldr	r0, [fp, #-96]	; 0xffffffa0
 c005d70:	ebfffad0 	bl	c0048b8 <actualizarTablero>
				digito = 0;
 c005d74:	e3a03000 	mov	r3, #0
 c005d78:	e50b3020 	str	r3, [fp, #-32]	; 0xffffffe0
				//F por el 8Led
				D8Led_symbol(15);
 c005d7c:	e3a0000f 	mov	r0, #15
 c005d80:	ebffebf1 	bl	c000d4c <D8Led_symbol>
				estado_juego = pedir_filas;
 c005d84:	e59f30f0 	ldr	r3, [pc, #240]	; c005e7c <sudoku9x9+0x868>
 c005d88:	e3a02001 	mov	r2, #1
 c005d8c:	e5c32000 	strb	r2, [r3]
				Lcd_DspAscII8x16(50, 120, BLACK, pulse_str);
				Lcd_Dma_Trans();
				leds_off();
				fin = 1;
			}
			break;
 c005d90:	ea000033 	b	c005e64 <sudoku9x9+0x850>
				actualizarTablero(cuadricula);
				digito = 0;
				//F por el 8Led
				D8Led_symbol(15);
				estado_juego = pedir_filas;
			} else if (botonPulsado() == 2) {
 c005d94:	ebffeedd 	bl	c001910 <botonPulsado>
 c005d98:	e1a03000 	mov	r3, r0
 c005d9c:	e3530002 	cmp	r3, #2
 c005da0:	1a00002e 	bne	c005e60 <sudoku9x9+0x84c>
				// ACABAR
				// Mostramos el resultado -> Partida finalizada por el usuario
				LcdClrRect(5, 80, 312, 175, 14); // Cuadro para el resultado
 c005da4:	e3a0300e 	mov	r3, #14
 c005da8:	e58d3000 	str	r3, [sp]
 c005dac:	e3a00005 	mov	r0, #5
 c005db0:	e3a01050 	mov	r1, #80	; 0x50
 c005db4:	e3a02f4e 	mov	r2, #312	; 0x138
 c005db8:	e3a030af 	mov	r3, #175	; 0xaf
 c005dbc:	ebffefbb 	bl	c001cb0 <LcdClrRect>
				LcdClrRect(15, 90, 302, 165, 0); // Cuadro para el resultado
 c005dc0:	e3a03000 	mov	r3, #0
 c005dc4:	e58d3000 	str	r3, [sp]
 c005dc8:	e3a0000f 	mov	r0, #15
 c005dcc:	e3a0105a 	mov	r1, #90	; 0x5a
 c005dd0:	e59f20b4 	ldr	r2, [pc, #180]	; c005e8c <sudoku9x9+0x878>
 c005dd4:	e3a030a5 	mov	r3, #165	; 0xa5
 c005dd8:	ebffefb4 	bl	c001cb0 <LcdClrRect>
				Lcd_DspAscII8x16(100, 110, BLACK, derrota_str);
 c005ddc:	e3a00064 	mov	r0, #100	; 0x64
 c005de0:	e3a0106e 	mov	r1, #110	; 0x6e
 c005de4:	e3a0200f 	mov	r2, #15
 c005de8:	e59f30c4 	ldr	r3, [pc, #196]	; c005eb4 <sudoku9x9+0x8a0>
 c005dec:	ebfff4f7 	bl	c0031d0 <Lcd_DspAscII8x16>
				Lcd_DspAscII8x16(50, 120, BLACK, pulse_str);
 c005df0:	e3a00032 	mov	r0, #50	; 0x32
 c005df4:	e3a01078 	mov	r1, #120	; 0x78
 c005df8:	e3a0200f 	mov	r2, #15
 c005dfc:	e59f3090 	ldr	r3, [pc, #144]	; c005e94 <sudoku9x9+0x880>
 c005e00:	ebfff4f2 	bl	c0031d0 <Lcd_DspAscII8x16>
				Lcd_Dma_Trans();
 c005e04:	ebfff603 	bl	c003618 <Lcd_Dma_Trans>
				leds_off();
 c005e08:	ebfff7f6 	bl	c003de8 <leds_off>
				fin = 1;
 c005e0c:	e3a03001 	mov	r3, #1
 c005e10:	e50b3010 	str	r3, [fp, #-16]
			}
			break;
 c005e14:	ea000012 	b	c005e64 <sudoku9x9+0x850>
				if (botonIzqPulsado == 1) {
					botonIzqPulsado == 0;
					estado_juego = confirmar_filas;
				}
			}
			break;
 c005e18:	e1a00000 	nop			; (mov r0, r0)
 c005e1c:	ea000010 	b	c005e64 <sudoku9x9+0x850>
 c005e20:	e1a00000 	nop			; (mov r0, r0)
 c005e24:	ea00000e 	b	c005e64 <sudoku9x9+0x850>
 c005e28:	e1a00000 	nop			; (mov r0, r0)
 c005e2c:	ea00000c 	b	c005e64 <sudoku9x9+0x850>
				if (botonIzqPulsado == 1) {
					botonIzqPulsado == 0;
					estado_juego = confirmar_columnas;
				}
			}
			break;
 c005e30:	e1a00000 	nop			; (mov r0, r0)
 c005e34:	ea00000a 	b	c005e64 <sudoku9x9+0x850>
 c005e38:	e1a00000 	nop			; (mov r0, r0)
 c005e3c:	ea000008 	b	c005e64 <sudoku9x9+0x850>
 c005e40:	e1a00000 	nop			; (mov r0, r0)
 c005e44:	ea000006 	b	c005e64 <sudoku9x9+0x850>
				if (botonIzqPulsado == 1) {
					botonIzqPulsado == 0;
					estado_juego = confirmar_valor;
				}
			}
			break;
 c005e48:	e1a00000 	nop			; (mov r0, r0)
 c005e4c:	ea000004 	b	c005e64 <sudoku9x9+0x850>
 c005e50:	e1a00000 	nop			; (mov r0, r0)
 c005e54:	ea000002 	b	c005e64 <sudoku9x9+0x850>
 c005e58:	e1a00000 	nop			; (mov r0, r0)
 c005e5c:	ea000000 	b	c005e64 <sudoku9x9+0x850>
				Lcd_DspAscII8x16(50, 120, BLACK, pulse_str);
				Lcd_Dma_Trans();
				leds_off();
				fin = 1;
			}
			break;
 c005e60:	e1a00000 	nop			; (mov r0, r0)
	int digito = -1;
	unsigned int botonIzqPulsado = 0;
	unsigned int b = 0;
	//F por el 8Led
	D8Led_symbol(15);
	while (fin == 0) {
 c005e64:	e51b3010 	ldr	r3, [fp, #-16]
 c005e68:	e3530000 	cmp	r3, #0
 c005e6c:	0afffe19 	beq	c0056d8 <sudoku9x9+0xc4>
			}
			break;
		}
		}
	}
}
 c005e70:	e24bd00c 	sub	sp, fp, #12
 c005e74:	e89d6800 	ldm	sp, {fp, sp, lr}
 c005e78:	e12fff1e 	bx	lr
 c005e7c:	0c007c28 	.word	0x0c007c28
 c005e80:	0c007a3c 	.word	0x0c007a3c
 c005e84:	0000013e 	.word	0x0000013e
 c005e88:	00000116 	.word	0x00000116
 c005e8c:	0000012e 	.word	0x0000012e
 c005e90:	0c0079a8 	.word	0x0c0079a8
 c005e94:	0c0079b8 	.word	0x0c0079b8
 c005e98:	01d20044 	.word	0x01d20044
 c005e9c:	66666667 	.word	0x66666667
 c005ea0:	0c007c2c 	.word	0x0c007c2c
 c005ea4:	0c0079d8 	.word	0x0c0079d8
 c005ea8:	38e38e39 	.word	0x38e38e39
 c005eac:	0c007c30 	.word	0x0c007c30
 c005eb0:	0c007c24 	.word	0x0c007c24
 c005eb4:	0c007998 	.word	0x0c007998

0c005eb8 <timer_ISR>:

//extern void push_debug(int ID_evento, int auxData);

/*--- codigo de las funciones ---*/
void timer_ISR(void)
{
 c005eb8:	e52dc004 	push	{ip}		; (str ip, [sp, #-4]!)
 c005ebc:	e1a0c00d 	mov	ip, sp
 c005ec0:	e92dd80c 	push	{r2, r3, fp, ip, lr, pc}
 c005ec4:	e24cb004 	sub	fp, ip, #4
	switch_leds = 1;
 c005ec8:	e59f3028 	ldr	r3, [pc, #40]	; c005ef8 <timer_ISR+0x40>
 c005ecc:	e3a02001 	mov	r2, #1
 c005ed0:	e5832000 	str	r2, [r3]

	/* borrar bit en I_ISPC para desactivar la solicitud de interrupcin*/
	rI_ISPC |= BIT_TIMER0; // BIT_TIMER0 est definido en 44b.h y pone un uno en el bit 13 que correponde al Timer0
 c005ed4:	e59f3020 	ldr	r3, [pc, #32]	; c005efc <timer_ISR+0x44>
 c005ed8:	e59f201c 	ldr	r2, [pc, #28]	; c005efc <timer_ISR+0x44>
 c005edc:	e5922000 	ldr	r2, [r2]
 c005ee0:	e3822a02 	orr	r2, r2, #8192	; 0x2000
 c005ee4:	e5832000 	str	r2, [r3]
}
 c005ee8:	e24bd014 	sub	sp, fp, #20
 c005eec:	e89d680c 	ldm	sp, {r2, r3, fp, sp, lr}
 c005ef0:	e49dc004 	pop	{ip}		; (ldr ip, [sp], #4)
 c005ef4:	e25ef004 	subs	pc, lr, #4
 c005ef8:	0c007a5c 	.word	0x0c007a5c
 c005efc:	01e00024 	.word	0x01e00024

0c005f00 <timer_init>:

void timer_init(void)
{
 c005f00:	e1a0c00d 	mov	ip, sp
 c005f04:	e92dd800 	push	{fp, ip, lr, pc}
 c005f08:	e24cb004 	sub	fp, ip, #4
	/* Configuraion controlador de interrupciones */
	rINTMOD = 0x0; // Configura las linas como de tipo IRQ
 c005f0c:	e59f307c 	ldr	r3, [pc, #124]	; c005f90 <timer_init+0x90>
 c005f10:	e3a02000 	mov	r2, #0
 c005f14:	e5832000 	str	r2, [r3]
	rINTCON = 0x1; // Habilita int. vectorizadas y la linea IRQ (FIQ no)
 c005f18:	e3a0361e 	mov	r3, #31457280	; 0x1e00000
 c005f1c:	e3a02001 	mov	r2, #1
 c005f20:	e5832000 	str	r2, [r3]
	rINTMSK = ~(BIT_GLOBAL | BIT_TIMER0); // Emascara todas las lineas excepto Timer0 y el bit global (bits 26 y 13, BIT_GLOBAL y BIT_TIMER0 estn definidos en 44b.h)
 c005f24:	e59f3068 	ldr	r3, [pc, #104]	; c005f94 <timer_init+0x94>
 c005f28:	e59f2068 	ldr	r2, [pc, #104]	; c005f98 <timer_init+0x98>
 c005f2c:	e5832000 	str	r2, [r3]

	/* Establece la rutina de servicio para TIMER0 */
	pISR_TIMER0 = (unsigned) timer_ISR;
 c005f30:	e59f3064 	ldr	r3, [pc, #100]	; c005f9c <timer_init+0x9c>
 c005f34:	e59f2064 	ldr	r2, [pc, #100]	; c005fa0 <timer_init+0xa0>
 c005f38:	e5832000 	str	r2, [r3]

	/* Configura el Timer0 */
	rTCFG0 = 255; // ajusta el preescalado
 c005f3c:	e59f3060 	ldr	r3, [pc, #96]	; c005fa4 <timer_init+0xa4>
 c005f40:	e3a020ff 	mov	r2, #255	; 0xff
 c005f44:	e5832000 	str	r2, [r3]
	rTCFG1 = 0x0; // selecciona la entrada del mux que proporciona el reloj. La 00 corresponde a un divisor de 1/2.
 c005f48:	e59f3058 	ldr	r3, [pc, #88]	; c005fa8 <timer_init+0xa8>
 c005f4c:	e3a02000 	mov	r2, #0
 c005f50:	e5832000 	str	r2, [r3]
	rTCNTB0 = 65535;// valor inicial de cuenta (la cuenta es descendente)
 c005f54:	e59f3050 	ldr	r3, [pc, #80]	; c005fac <timer_init+0xac>
 c005f58:	e59f2050 	ldr	r2, [pc, #80]	; c005fb0 <timer_init+0xb0>
 c005f5c:	e5832000 	str	r2, [r3]
	rTCMPB0 = 12800;// valor de comparacin
 c005f60:	e59f304c 	ldr	r3, [pc, #76]	; c005fb4 <timer_init+0xb4>
 c005f64:	e3a02c32 	mov	r2, #12800	; 0x3200
 c005f68:	e5832000 	str	r2, [r3]
	/* establecer update=manual (bit 1) + inverter=on (? ser inverter off un cero en el bit 2 pone el inverter en off)*/
	rTCON = 0x2; // [1]
 c005f6c:	e59f3044 	ldr	r3, [pc, #68]	; c005fb8 <timer_init+0xb8>
 c005f70:	e3a02002 	mov	r2, #2
 c005f74:	e5832000 	str	r2, [r3]
	/* iniciar timer (bit 0) con auto-reload (bit 3)*/
	rTCON = 0x09; // [0,3]
 c005f78:	e59f3038 	ldr	r3, [pc, #56]	; c005fb8 <timer_init+0xb8>
 c005f7c:	e3a02009 	mov	r2, #9
 c005f80:	e5832000 	str	r2, [r3]
}
 c005f84:	e24bd00c 	sub	sp, fp, #12
 c005f88:	e89d6800 	ldm	sp, {fp, sp, lr}
 c005f8c:	e12fff1e 	bx	lr
 c005f90:	01e00008 	.word	0x01e00008
 c005f94:	01e0000c 	.word	0x01e0000c
 c005f98:	fbffdfff 	.word	0xfbffdfff
 c005f9c:	0c7fff54 	.word	0x0c7fff54
 c005fa0:	0c005eb8 	.word	0x0c005eb8
 c005fa4:	01d50000 	.word	0x01d50000
 c005fa8:	01d50004 	.word	0x01d50004
 c005fac:	01d5000c 	.word	0x01d5000c
 c005fb0:	0000ffff 	.word	0x0000ffff
 c005fb4:	01d50010 	.word	0x01d50010
 c005fb8:	01d50008 	.word	0x01d50008

0c005fbc <timer2_Inicializar>:

/*--- VALORES INICIALES ---*/
void timer2_Inicializar(void)
{
 c005fbc:	e1a0c00d 	mov	ip, sp
 c005fc0:	e92dd800 	push	{fp, ip, lr, pc}
 c005fc4:	e24cb004 	sub	fp, ip, #4
	/* Configuracion controlador de interrupciones */
	rINTMOD = 0x0; // Configura las linas como de tipo IRQ
 c005fc8:	e59f3080 	ldr	r3, [pc, #128]	; c006050 <timer2_Inicializar+0x94>
 c005fcc:	e3a02000 	mov	r2, #0
 c005fd0:	e5832000 	str	r2, [r3]
	rINTCON = 0x1; // Habilita int. vectorizadas y la linea IRQ (FIQ no)
 c005fd4:	e3a0361e 	mov	r3, #31457280	; 0x1e00000
 c005fd8:	e3a02001 	mov	r2, #1
 c005fdc:	e5832000 	str	r2, [r3]
	rINTMSK = rINTMSK & ~(BIT_TIMER2); // Emascara todas las lineas excepto Timer2 y el bit global (bits 26 y 13, BIT_GLOBAL y BIT_TIMER2 estn definidos en 44b.h)
 c005fe0:	e59f306c 	ldr	r3, [pc, #108]	; c006054 <timer2_Inicializar+0x98>
 c005fe4:	e59f2068 	ldr	r2, [pc, #104]	; c006054 <timer2_Inicializar+0x98>
 c005fe8:	e5922000 	ldr	r2, [r2]
 c005fec:	e3c22b02 	bic	r2, r2, #2048	; 0x800
 c005ff0:	e5832000 	str	r2, [r3]

	/* Establece la rutina de servicio para TIMER2 */
	pISR_TIMER2 = (unsigned) timer2_ISR;
 c005ff4:	e59f305c 	ldr	r3, [pc, #92]	; c006058 <timer2_Inicializar+0x9c>
 c005ff8:	e59f205c 	ldr	r2, [pc, #92]	; c00605c <timer2_Inicializar+0xa0>
 c005ffc:	e5832000 	str	r2, [r3]

	/* Configura el Timer2 */
	// F = MCLK/ ((valor de pre-escalado + 1)(valor del divisor))
	rTCFG0 &= 0xFFFF00FF; // ajusta el preescalado
 c006000:	e59f3058 	ldr	r3, [pc, #88]	; c006060 <timer2_Inicializar+0xa4>
 c006004:	e59f2054 	ldr	r2, [pc, #84]	; c006060 <timer2_Inicializar+0xa4>
 c006008:	e5922000 	ldr	r2, [r2]
 c00600c:	e3c22cff 	bic	r2, r2, #65280	; 0xff00
 c006010:	e5832000 	str	r2, [r3]
	rTCFG1 &= 0xFFFF0FF; // selecciona la entrada del mux que proporciona el reloj. La 00 corresponde a un divisor de 1/2.
 c006014:	e59f2048 	ldr	r2, [pc, #72]	; c006064 <timer2_Inicializar+0xa8>
 c006018:	e59f3044 	ldr	r3, [pc, #68]	; c006064 <timer2_Inicializar+0xa8>
 c00601c:	e5933000 	ldr	r3, [r3]
 c006020:	e3c3320f 	bic	r3, r3, #-268435456	; 0xf0000000
 c006024:	e3c33c0f 	bic	r3, r3, #3840	; 0xf00
 c006028:	e5823000 	str	r3, [r2]
	rTCNTB2 = 33333; // valor inicial de cuenta (la cuenta es descendente) 32x10^3
 c00602c:	e59f3034 	ldr	r3, [pc, #52]	; c006068 <timer2_Inicializar+0xac>
 c006030:	e59f2034 	ldr	r2, [pc, #52]	; c00606c <timer2_Inicializar+0xb0>
 c006034:	e5832000 	str	r2, [r3]
	//rTCNTB2 = 33000; // valor inicial de cuenta (la cuenta es descendente) 32x10^3
	rTCMPB2 = 0x0; // valor de comparacin
 c006038:	e59f3030 	ldr	r3, [pc, #48]	; c006070 <timer2_Inicializar+0xb4>
 c00603c:	e3a02000 	mov	r2, #0
 c006040:	e5832000 	str	r2, [r3]
}
 c006044:	e24bd00c 	sub	sp, fp, #12
 c006048:	e89d6800 	ldm	sp, {fp, sp, lr}
 c00604c:	e12fff1e 	bx	lr
 c006050:	01e00008 	.word	0x01e00008
 c006054:	01e0000c 	.word	0x01e0000c
 c006058:	0c7fff4c 	.word	0x0c7fff4c
 c00605c:	0c0061b4 	.word	0x0c0061b4
 c006060:	01d50000 	.word	0x01d50000
 c006064:	01d50004 	.word	0x01d50004
 c006068:	01d50024 	.word	0x01d50024
 c00606c:	00008235 	.word	0x00008235
 c006070:	01d50028 	.word	0x01d50028

0c006074 <timer2_Empezar>:

/*--- INICIO DEL TIMER2:  ---*/
void timer2_Empezar(void)
{
 c006074:	e1a0c00d 	mov	ip, sp
 c006078:	e92dd800 	push	{fp, ip, lr, pc}
 c00607c:	e24cb004 	sub	fp, ip, #4
	timer2_num_int = 0; // inicializar contador periodos
 c006080:	e59f3050 	ldr	r3, [pc, #80]	; c0060d8 <timer2_Empezar+0x64>
 c006084:	e3a02000 	mov	r2, #0
 c006088:	e5832000 	str	r2, [r3]
	// Activar el manual update bit del temporizador y start a 0
	rTCON &= 0xFFF6FFF;
 c00608c:	e59f2048 	ldr	r2, [pc, #72]	; c0060dc <timer2_Empezar+0x68>
 c006090:	e59f3044 	ldr	r3, [pc, #68]	; c0060dc <timer2_Empezar+0x68>
 c006094:	e5933000 	ldr	r3, [r3]
 c006098:	e3c3320f 	bic	r3, r3, #-268435456	; 0xf0000000
 c00609c:	e3c33a09 	bic	r3, r3, #36864	; 0x9000
 c0060a0:	e5823000 	str	r3, [r2]
	rTCON |= 0x2000; // [13]
 c0060a4:	e59f3030 	ldr	r3, [pc, #48]	; c0060dc <timer2_Empezar+0x68>
 c0060a8:	e59f202c 	ldr	r2, [pc, #44]	; c0060dc <timer2_Empezar+0x68>
 c0060ac:	e5922000 	ldr	r2, [r2]
 c0060b0:	e3822a02 	orr	r2, r2, #8192	; 0x2000
 c0060b4:	e5832000 	str	r2, [r3]
	// Activar el bit de comienzo (start bit) con autoreload al mismo tiempo que se desactiva el manual update bit
	rTCON ^= 0x000B000; // activar 12, 15 y bajar 13
 c0060b8:	e59f301c 	ldr	r3, [pc, #28]	; c0060dc <timer2_Empezar+0x68>
 c0060bc:	e59f2018 	ldr	r2, [pc, #24]	; c0060dc <timer2_Empezar+0x68>
 c0060c0:	e5922000 	ldr	r2, [r2]
 c0060c4:	e2222a0b 	eor	r2, r2, #45056	; 0xb000
 c0060c8:	e5832000 	str	r2, [r3]
}
 c0060cc:	e24bd00c 	sub	sp, fp, #12
 c0060d0:	e89d6800 	ldm	sp, {fp, sp, lr}
 c0060d4:	e12fff1e 	bx	lr
 c0060d8:	0c007a60 	.word	0x0c007a60
 c0060dc:	01d50008 	.word	0x01d50008

0c0060e0 <timer2_Leer_micros>:

/*--- LECTURA DEL TIMER2:  ---*/
unsigned int timer2_Leer_micros(void)
{
 c0060e0:	e1a0c00d 	mov	ip, sp
 c0060e4:	e92dd800 	push	{fp, ip, lr, pc}
 c0060e8:	e24cb004 	sub	fp, ip, #4
 c0060ec:	e24dd010 	sub	sp, sp, #16
	//actual = (unsigned int)timer2_num_int*(unsigned int)1000;
	//parcial=(unsigned int)rTCNTO2;
	//total = (unsigned int)actual+((unsigned int)33000-parcial)/(unsigned int)32;
	//return total;
	unsigned int actual, parcial, total;
	actual = (timer2_num_int*33333)/32; // microseg
 c0060f0:	e59f307c 	ldr	r3, [pc, #124]	; c006174 <timer2_Leer_micros+0x94>
 c0060f4:	e5932000 	ldr	r2, [r3]
 c0060f8:	e1a03002 	mov	r3, r2
 c0060fc:	e1a03303 	lsl	r3, r3, #6
 c006100:	e0833002 	add	r3, r3, r2
 c006104:	e1a03203 	lsl	r3, r3, #4
 c006108:	e0833002 	add	r3, r3, r2
 c00610c:	e1a03083 	lsl	r3, r3, #1
 c006110:	e0833002 	add	r3, r3, r2
 c006114:	e1a03103 	lsl	r3, r3, #2
 c006118:	e0833002 	add	r3, r3, r2
 c00611c:	e1a03103 	lsl	r3, r3, #2
 c006120:	e0833002 	add	r3, r3, r2
 c006124:	e1a032a3 	lsr	r3, r3, #5
 c006128:	e50b3010 	str	r3, [fp, #-16]
	parcial = rTCNTO2;
 c00612c:	e59f3044 	ldr	r3, [pc, #68]	; c006178 <timer2_Leer_micros+0x98>
 c006130:	e5933000 	ldr	r3, [r3]
 c006134:	e50b3014 	str	r3, [fp, #-20]	; 0xffffffec
	total = actual+(33333-parcial)/32; // microseg
 c006138:	e51b3014 	ldr	r3, [fp, #-20]	; 0xffffffec
 c00613c:	e2633c82 	rsb	r3, r3, #33280	; 0x8200
 c006140:	e2833035 	add	r3, r3, #53	; 0x35
 c006144:	e1a022a3 	lsr	r2, r3, #5
 c006148:	e51b3010 	ldr	r3, [fp, #-16]
 c00614c:	e0823003 	add	r3, r2, r3
 c006150:	e50b3018 	str	r3, [fp, #-24]	; 0xffffffe8
	return total/1000; // miliseg
 c006154:	e51b2018 	ldr	r2, [fp, #-24]	; 0xffffffe8
 c006158:	e59f301c 	ldr	r3, [pc, #28]	; c00617c <timer2_Leer_micros+0x9c>
 c00615c:	e0831392 	umull	r1, r3, r2, r3
 c006160:	e1a03323 	lsr	r3, r3, #6
}
 c006164:	e1a00003 	mov	r0, r3
 c006168:	e24bd00c 	sub	sp, fp, #12
 c00616c:	e89d6800 	ldm	sp, {fp, sp, lr}
 c006170:	e12fff1e 	bx	lr
 c006174:	0c007a60 	.word	0x0c007a60
 c006178:	01d5002c 	.word	0x01d5002c
 c00617c:	10624dd3 	.word	0x10624dd3

0c006180 <timer2_Leer>:
unsigned int timer2_Leer(void) //devuelve el tiempo en milisegundos
{
 c006180:	e1a0c00d 	mov	ip, sp
 c006184:	e92dd800 	push	{fp, ip, lr, pc}
 c006188:	e24cb004 	sub	fp, ip, #4
 c00618c:	e24dd008 	sub	sp, sp, #8
	//actual = (unsigned int)timer2_num_int*(unsigned int)1000;
	//parcial=(unsigned int)rTCNTO2;
	//total = (unsigned int)actual+((unsigned int)33000-parcial)/(unsigned int)32;
	//return total;
	unsigned int actual, parcial, total;
	total = timer2_num_int;
 c006190:	e59f3018 	ldr	r3, [pc, #24]	; c0061b0 <timer2_Leer+0x30>
 c006194:	e5933000 	ldr	r3, [r3]
 c006198:	e50b3010 	str	r3, [fp, #-16]
	return total; // miliseg
 c00619c:	e51b3010 	ldr	r3, [fp, #-16]
}
 c0061a0:	e1a00003 	mov	r0, r3
 c0061a4:	e24bd00c 	sub	sp, fp, #12
 c0061a8:	e89d6800 	ldm	sp, {fp, sp, lr}
 c0061ac:	e12fff1e 	bx	lr
 c0061b0:	0c007a60 	.word	0x0c007a60

0c0061b4 <timer2_ISR>:
/*--- RUTINA SERVICIO TIMER2 ---*/
void timer2_ISR(void)
{
 c0061b4:	e52dc004 	push	{ip}		; (str ip, [sp, #-4]!)
 c0061b8:	e1a0c00d 	mov	ip, sp
 c0061bc:	e92dd80f 	push	{r0, r1, r2, r3, fp, ip, lr, pc}
 c0061c0:	e24cb004 	sub	fp, ip, #4
	// Cada vez que se produce una interrupcion aumentamos el contador
	timer2_num_int++;
 c0061c4:	e59f3088 	ldr	r3, [pc, #136]	; c006254 <timer2_ISR+0xa0>
 c0061c8:	e5933000 	ldr	r3, [r3]
 c0061cc:	e2832001 	add	r2, r3, #1
 c0061d0:	e59f307c 	ldr	r3, [pc, #124]	; c006254 <timer2_ISR+0xa0>
 c0061d4:	e5832000 	str	r2, [r3]

	// Si esta activa la gestion de rebotes la realizamos
	if(Eint4567_signal == 1) {
 c0061d8:	e59f3078 	ldr	r3, [pc, #120]	; c006258 <timer2_ISR+0xa4>
 c0061dc:	e5933000 	ldr	r3, [r3]
 c0061e0:	e3530001 	cmp	r3, #1
 c0061e4:	1a000008 	bne	c00620c <timer2_ISR+0x58>
		actualizar_estado_boton_desde_timer_int();
 c0061e8:	ebffed5d 	bl	c001764 <actualizar_estado_boton_desde_timer_int>
		/*
		 * Comprueba si ha terminado el gestor de espera
		 */
		if(estado_boton == inicial) {
 c0061ec:	e59f3068 	ldr	r3, [pc, #104]	; c00625c <timer2_ISR+0xa8>
 c0061f0:	e5d33000 	ldrb	r3, [r3]
 c0061f4:	e20330ff 	and	r3, r3, #255	; 0xff
 c0061f8:	e3530000 	cmp	r3, #0
 c0061fc:	1a000002 	bne	c00620c <timer2_ISR+0x58>
			// deshabilitamos la seal de gestion de rebotes
			Eint4567_signal = 0;
 c006200:	e59f3050 	ldr	r3, [pc, #80]	; c006258 <timer2_ISR+0xa4>
 c006204:	e3a02000 	mov	r2, #0
 c006208:	e5832000 	str	r2, [r3]
		}
	}
	if (Esperar_signal == 1) {
 c00620c:	e59f304c 	ldr	r3, [pc, #76]	; c006260 <timer2_ISR+0xac>
 c006210:	e5933000 	ldr	r3, [r3]
 c006214:	e3530001 	cmp	r3, #1
 c006218:	1a000004 	bne	c006230 <timer2_ISR+0x7c>
		contador--;
 c00621c:	e59f3040 	ldr	r3, [pc, #64]	; c006264 <timer2_ISR+0xb0>
 c006220:	e5933000 	ldr	r3, [r3]
 c006224:	e2432001 	sub	r2, r3, #1
 c006228:	e59f3034 	ldr	r3, [pc, #52]	; c006264 <timer2_ISR+0xb0>
 c00622c:	e5832000 	str	r2, [r3]
	}

	/* borrar bit en I_ISPC para desactivar la solicitud de interrupcin*/
	rI_ISPC |= BIT_TIMER2; // BIT_TIMER2 est definido en 44b.h y pone un uno en el bit 11 que correponde al Timer2
 c006230:	e59f3030 	ldr	r3, [pc, #48]	; c006268 <timer2_ISR+0xb4>
 c006234:	e59f202c 	ldr	r2, [pc, #44]	; c006268 <timer2_ISR+0xb4>
 c006238:	e5922000 	ldr	r2, [r2]
 c00623c:	e3822b02 	orr	r2, r2, #2048	; 0x800
 c006240:	e5832000 	str	r2, [r3]
}
 c006244:	e24bd01c 	sub	sp, fp, #28
 c006248:	e89d680f 	ldm	sp, {r0, r1, r2, r3, fp, sp, lr}
 c00624c:	e49dc004 	pop	{ip}		; (ldr ip, [sp], #4)
 c006250:	e25ef004 	subs	pc, lr, #4
 c006254:	0c007a60 	.word	0x0c007a60
 c006258:	0c007a64 	.word	0x0c007a64
 c00625c:	0c007af8 	.word	0x0c007af8
 c006260:	0c007a68 	.word	0x0c007a68
 c006264:	0c00668c 	.word	0x0c00668c
 c006268:	01e00024 	.word	0x01e00024

0c00626c <timer2_Eint4567>:

/*--- GESTION REBOTES ---*/
// indicamos al timer que tiene que gestionar los rebotes
void timer2_Eint4567(void) {
 c00626c:	e1a0c00d 	mov	ip, sp
 c006270:	e92dd800 	push	{fp, ip, lr, pc}
 c006274:	e24cb004 	sub	fp, ip, #4
	Eint4567_signal = 1;
 c006278:	e59f3010 	ldr	r3, [pc, #16]	; c006290 <timer2_Eint4567+0x24>
 c00627c:	e3a02001 	mov	r2, #1
 c006280:	e5832000 	str	r2, [r3]
}
 c006284:	e24bd00c 	sub	sp, fp, #12
 c006288:	e89d6800 	ldm	sp, {fp, sp, lr}
 c00628c:	e12fff1e 	bx	lr
 c006290:	0c007a64 	.word	0x0c007a64

0c006294 <timer2_Esperar>:

void timer2_Esperar(void) {
 c006294:	e1a0c00d 	mov	ip, sp
 c006298:	e92dd800 	push	{fp, ip, lr, pc}
 c00629c:	e24cb004 	sub	fp, ip, #4
	Esperar_signal = 1;
 c0062a0:	e59f3010 	ldr	r3, [pc, #16]	; c0062b8 <timer2_Esperar+0x24>
 c0062a4:	e3a02001 	mov	r2, #1
 c0062a8:	e5832000 	str	r2, [r3]
}
 c0062ac:	e24bd00c 	sub	sp, fp, #12
 c0062b0:	e89d6800 	ldm	sp, {fp, sp, lr}
 c0062b4:	e12fff1e 	bx	lr
 c0062b8:	0c007a68 	.word	0x0c007a68

0c0062bc <timer2_ResetEsperar>:

void timer2_ResetEsperar(void) {
 c0062bc:	e1a0c00d 	mov	ip, sp
 c0062c0:	e92dd800 	push	{fp, ip, lr, pc}
 c0062c4:	e24cb004 	sub	fp, ip, #4
	Esperar_signal = 0;
 c0062c8:	e59f301c 	ldr	r3, [pc, #28]	; c0062ec <timer2_ResetEsperar+0x30>
 c0062cc:	e3a02000 	mov	r2, #0
 c0062d0:	e5832000 	str	r2, [r3]
	contador = 300;
 c0062d4:	e59f3014 	ldr	r3, [pc, #20]	; c0062f0 <timer2_ResetEsperar+0x34>
 c0062d8:	e3a02f4b 	mov	r2, #300	; 0x12c
 c0062dc:	e5832000 	str	r2, [r3]
}
 c0062e0:	e24bd00c 	sub	sp, fp, #12
 c0062e4:	e89d6800 	ldm	sp, {fp, sp, lr}
 c0062e8:	e12fff1e 	bx	lr
 c0062ec:	0c007a68 	.word	0x0c007a68
 c0062f0:	0c00668c 	.word	0x0c00668c

0c0062f4 <getContador>:
unsigned int getContador() {
 c0062f4:	e1a0c00d 	mov	ip, sp
 c0062f8:	e92dd800 	push	{fp, ip, lr, pc}
 c0062fc:	e24cb004 	sub	fp, ip, #4
	return contador;
 c006300:	e59f3010 	ldr	r3, [pc, #16]	; c006318 <getContador+0x24>
 c006304:	e5933000 	ldr	r3, [r3]
}
 c006308:	e1a00003 	mov	r0, r3
 c00630c:	e24bd00c 	sub	sp, fp, #12
 c006310:	e89d6800 	ldm	sp, {fp, sp, lr}
 c006314:	e12fff1e 	bx	lr
 c006318:	0c00668c 	.word	0x0c00668c

0c00631c <segundos>:

unsigned int segundos() {
 c00631c:	e1a0c00d 	mov	ip, sp
 c006320:	e92dd800 	push	{fp, ip, lr, pc}
 c006324:	e24cb004 	sub	fp, ip, #4
	return seg;
 c006328:	e59f3010 	ldr	r3, [pc, #16]	; c006340 <segundos+0x24>
 c00632c:	e5933000 	ldr	r3, [r3]
}
 c006330:	e1a00003 	mov	r0, r3
 c006334:	e24bd00c 	sub	sp, fp, #12
 c006338:	e89d6800 	ldm	sp, {fp, sp, lr}
 c00633c:	e12fff1e 	bx	lr
 c006340:	0c007a70 	.word	0x0c007a70

0c006344 <__aeabi_idiv>:
 c006344:	e3510000 	cmp	r1, #0
 c006348:	0a000043 	beq	c00645c <.divsi3_skip_div0_test+0x110>

0c00634c <.divsi3_skip_div0_test>:
 c00634c:	e020c001 	eor	ip, r0, r1
 c006350:	42611000 	rsbmi	r1, r1, #0
 c006354:	e2512001 	subs	r2, r1, #1
 c006358:	0a000027 	beq	c0063fc <.divsi3_skip_div0_test+0xb0>
 c00635c:	e1b03000 	movs	r3, r0
 c006360:	42603000 	rsbmi	r3, r0, #0
 c006364:	e1530001 	cmp	r3, r1
 c006368:	9a000026 	bls	c006408 <.divsi3_skip_div0_test+0xbc>
 c00636c:	e1110002 	tst	r1, r2
 c006370:	0a000028 	beq	c006418 <.divsi3_skip_div0_test+0xcc>
 c006374:	e311020e 	tst	r1, #-536870912	; 0xe0000000
 c006378:	01a01181 	lsleq	r1, r1, #3
 c00637c:	03a02008 	moveq	r2, #8
 c006380:	13a02001 	movne	r2, #1
 c006384:	e3510201 	cmp	r1, #268435456	; 0x10000000
 c006388:	31510003 	cmpcc	r1, r3
 c00638c:	31a01201 	lslcc	r1, r1, #4
 c006390:	31a02202 	lslcc	r2, r2, #4
 c006394:	3afffffa 	bcc	c006384 <.divsi3_skip_div0_test+0x38>
 c006398:	e3510102 	cmp	r1, #-2147483648	; 0x80000000
 c00639c:	31510003 	cmpcc	r1, r3
 c0063a0:	31a01081 	lslcc	r1, r1, #1
 c0063a4:	31a02082 	lslcc	r2, r2, #1
 c0063a8:	3afffffa 	bcc	c006398 <.divsi3_skip_div0_test+0x4c>
 c0063ac:	e3a00000 	mov	r0, #0
 c0063b0:	e1530001 	cmp	r3, r1
 c0063b4:	20433001 	subcs	r3, r3, r1
 c0063b8:	21800002 	orrcs	r0, r0, r2
 c0063bc:	e15300a1 	cmp	r3, r1, lsr #1
 c0063c0:	204330a1 	subcs	r3, r3, r1, lsr #1
 c0063c4:	218000a2 	orrcs	r0, r0, r2, lsr #1
 c0063c8:	e1530121 	cmp	r3, r1, lsr #2
 c0063cc:	20433121 	subcs	r3, r3, r1, lsr #2
 c0063d0:	21800122 	orrcs	r0, r0, r2, lsr #2
 c0063d4:	e15301a1 	cmp	r3, r1, lsr #3
 c0063d8:	204331a1 	subcs	r3, r3, r1, lsr #3
 c0063dc:	218001a2 	orrcs	r0, r0, r2, lsr #3
 c0063e0:	e3530000 	cmp	r3, #0
 c0063e4:	11b02222 	lsrsne	r2, r2, #4
 c0063e8:	11a01221 	lsrne	r1, r1, #4
 c0063ec:	1affffef 	bne	c0063b0 <.divsi3_skip_div0_test+0x64>
 c0063f0:	e35c0000 	cmp	ip, #0
 c0063f4:	42600000 	rsbmi	r0, r0, #0
 c0063f8:	e12fff1e 	bx	lr
 c0063fc:	e13c0000 	teq	ip, r0
 c006400:	42600000 	rsbmi	r0, r0, #0
 c006404:	e12fff1e 	bx	lr
 c006408:	33a00000 	movcc	r0, #0
 c00640c:	01a00fcc 	asreq	r0, ip, #31
 c006410:	03800001 	orreq	r0, r0, #1
 c006414:	e12fff1e 	bx	lr
 c006418:	e3510801 	cmp	r1, #65536	; 0x10000
 c00641c:	21a01821 	lsrcs	r1, r1, #16
 c006420:	23a02010 	movcs	r2, #16
 c006424:	33a02000 	movcc	r2, #0
 c006428:	e3510c01 	cmp	r1, #256	; 0x100
 c00642c:	21a01421 	lsrcs	r1, r1, #8
 c006430:	22822008 	addcs	r2, r2, #8
 c006434:	e3510010 	cmp	r1, #16
 c006438:	21a01221 	lsrcs	r1, r1, #4
 c00643c:	22822004 	addcs	r2, r2, #4
 c006440:	e3510004 	cmp	r1, #4
 c006444:	82822003 	addhi	r2, r2, #3
 c006448:	908220a1 	addls	r2, r2, r1, lsr #1
 c00644c:	e35c0000 	cmp	ip, #0
 c006450:	e1a00233 	lsr	r0, r3, r2
 c006454:	42600000 	rsbmi	r0, r0, #0
 c006458:	e12fff1e 	bx	lr
 c00645c:	e3500000 	cmp	r0, #0
 c006460:	c3e00102 	mvngt	r0, #-2147483648	; 0x80000000
 c006464:	b3a00102 	movlt	r0, #-2147483648	; 0x80000000
 c006468:	ea000007 	b	c00648c <__aeabi_idiv0>

0c00646c <__aeabi_idivmod>:
 c00646c:	e3510000 	cmp	r1, #0
 c006470:	0afffff9 	beq	c00645c <.divsi3_skip_div0_test+0x110>
 c006474:	e92d4003 	push	{r0, r1, lr}
 c006478:	ebffffb3 	bl	c00634c <.divsi3_skip_div0_test>
 c00647c:	e8bd4006 	pop	{r1, r2, lr}
 c006480:	e0030092 	mul	r3, r2, r0
 c006484:	e0411003 	sub	r1, r1, r3
 c006488:	e12fff1e 	bx	lr

0c00648c <__aeabi_idiv0>:
 c00648c:	e12fff1e 	bx	lr

0c006490 <strlen>:
 c006490:	e3c01003 	bic	r1, r0, #3
 c006494:	e2100003 	ands	r0, r0, #3
 c006498:	e2600000 	rsb	r0, r0, #0
 c00649c:	e4913004 	ldr	r3, [r1], #4
 c0064a0:	e280c004 	add	ip, r0, #4
 c0064a4:	e1a0c18c 	lsl	ip, ip, #3
 c0064a8:	e3e02000 	mvn	r2, #0
 c0064ac:	11833c32 	orrne	r3, r3, r2, lsr ip
 c0064b0:	e3a0c001 	mov	ip, #1
 c0064b4:	e18cc40c 	orr	ip, ip, ip, lsl #8
 c0064b8:	e18cc80c 	orr	ip, ip, ip, lsl #16
 c0064bc:	e043200c 	sub	r2, r3, ip
 c0064c0:	e1c22003 	bic	r2, r2, r3
 c0064c4:	e012238c 	ands	r2, r2, ip, lsl #7
 c0064c8:	04913004 	ldreq	r3, [r1], #4
 c0064cc:	02800004 	addeq	r0, r0, #4
 c0064d0:	0afffff9 	beq	c0064bc <strlen+0x2c>
 c0064d4:	e31300ff 	tst	r3, #255	; 0xff
 c0064d8:	12800001 	addne	r0, r0, #1
 c0064dc:	13130cff 	tstne	r3, #65280	; 0xff00
 c0064e0:	12800001 	addne	r0, r0, #1
 c0064e4:	131308ff 	tstne	r3, #16711680	; 0xff0000
 c0064e8:	12800001 	addne	r0, r0, #1
 c0064ec:	e12fff1e 	bx	lr
